ccopy_reg
_reconstructor
p1
(cmatplotlib.font_manager
FontManager
p2
c__builtin__
object
p3
NtRp4
(dp5
S'ttflist'
p6
(lp7
g1
(cmatplotlib.font_manager
FontEntry
p8
g3
NtRp9
(dp10
S'style'
p11
Vnormal
p12
sS'name'
p13
VSTIXSizeThreeSym
p14
sS'weight'
p15
I700
sS'stretch'
p16
g12
sS'variant'
p17
g12
sS'fname'
p18
VC:\u005cPython27\u005cArcGIS10.8\u005clib\u005csite-packages\u005cmatplotlib\u005cmpl-data\u005cfonts\u005cttf\u005cSTIXSizThreeSymBol.ttf
p19
sS'size'
p20
Vscalable
p21
sbag1
(g8
g3
NtRp22
(dp23
g11
g12
sg13
VSTIXSizeFourSym
p24
sg15
I700
sg16
g12
sg17
g12
sg18
VC:\u005cPython27\u005cArcGIS10.8\u005clib\u005csite-packages\u005cmatplotlib\u005cmpl-data\u005cfonts\u005cttf\u005cSTIXSizFourSymBol.ttf
p25
sg20
g21
sbag1
(g8
g3
NtRp26
(dp27
g11
Voblique
p28
sg13
VBitstream Vera Sans Mono
p29
sg15
I700
sg16
g12
sg17
g12
sg18
VC:\u005cPython27\u005cArcGIS10.8\u005clib\u005csite-packages\u005cmatplotlib\u005cmpl-data\u005cfonts\u005cttf\u005cVeraMoBI.ttf
p30
sg20
g21
sbag1
(g8
g3
NtRp31
(dp32
g11
g12
sg13
Vcmb10
p33
sg15
I400
sg16
g12
sg17
g12
sg18
VC:\u005cPython27\u005cArcGIS10.8\u005clib\u005csite-packages\u005cmatplotlib\u005cmpl-data\u005cfonts\u005cttf\u005ccmb10.ttf
p34
sg20
g21
sbag1
(g8
g3
NtRp35
(dp36
g11
g28
sg13
VBitstream Vera Sans
p37
sg15
I700
sg16
g12
sg17
g12
sg18
VC:\u005cPython27\u005cArcGIS10.8\u005clib\u005csite-packages\u005cmatplotlib\u005cmpl-data\u005cfonts\u005cttf\u005cVeraBI.ttf
p38
sg20
g21
sbag1
(g8
g3
NtRp39
(dp40
g11
g12
sg13
Vcmtt10
p41
sg15
I400
sg16
g12
sg17
g12
sg18
VC:\u005cPython27\u005cArcGIS10.8\u005clib\u005csite-packages\u005cmatplotlib\u005cmpl-data\u005cfonts\u005cttf\u005ccmtt10.ttf
p42
sg20
g21
sbag1
(g8
g3
NtRp43
(dp44
g11
Vitalic
p45
sg13
VSTIXNonUnicode
p46
sg15
I400
sg16
g12
sg17
g12
sg18
VC:\u005cPython27\u005cArcGIS10.8\u005clib\u005csite-packages\u005cmatplotlib\u005cmpl-data\u005cfonts\u005cttf\u005cSTIXNonUniIta.ttf
p47
sg20
g21
sbag1
(g8
g3
NtRp48
(dp49
g11
g28
sg13
VBitstream Vera Sans Mono
p50
sg15
I400
sg16
g12
sg17
g12
sg18
VC:\u005cPython27\u005cArcGIS10.8\u005clib\u005csite-packages\u005cmatplotlib\u005cmpl-data\u005cfonts\u005cttf\u005cVeraMoIt.ttf
p51
sg20
g21
sbag1
(g8
g3
NtRp52
(dp53
g11
g12
sg13
Vcmex10
p54
sg15
I400
sg16
g12
sg17
g12
sg18
VC:\u005cPython27\u005cArcGIS10.8\u005clib\u005csite-packages\u005cmatplotlib\u005cmpl-data\u005cfonts\u005cttf\u005ccmex10.ttf
p55
sg20
g21
sbag1
(g8
g3
NtRp56
(dp57
g11
g12
sg13
VBitstream Vera Sans Mono
p58
sg15
I400
sg16
g12
sg17
g12
sg18
VC:\u005cPython27\u005cArcGIS10.8\u005clib\u005csite-packages\u005cmatplotlib\u005cmpl-data\u005cfonts\u005cttf\u005cVeraMono.ttf
p59
sg20
g21
sbag1
(g8
g3
NtRp60
(dp61
g11
g45
sg13
VSTIXNonUnicode
p62
sg15
I700
sg16
g12
sg17
g12
sg18
VC:\u005cPython27\u005cArcGIS10.8\u005clib\u005csite-packages\u005cmatplotlib\u005cmpl-data\u005cfonts\u005cttf\u005cSTIXNonUniBolIta.ttf
p63
sg20
g21
sbag1
(g8
g3
NtRp64
(dp65
g11
g12
sg13
VSTIXSizeFourSym
p66
sg15
I400
sg16
g12
sg17
g12
sg18
VC:\u005cPython27\u005cArcGIS10.8\u005clib\u005csite-packages\u005cmatplotlib\u005cmpl-data\u005cfonts\u005cttf\u005cSTIXSizFourSymReg.ttf
p67
sg20
g21
sbag1
(g8
g3
NtRp68
(dp69
g11
g12
sg13
VSTIXSizeOneSym
p70
sg15
I700
sg16
g12
sg17
g12
sg18
VC:\u005cPython27\u005cArcGIS10.8\u005clib\u005csite-packages\u005cmatplotlib\u005cmpl-data\u005cfonts\u005cttf\u005cSTIXSizOneSymBol.ttf
p71
sg20
g21
sbag1
(g8
g3
NtRp72
(dp73
g11
g12
sg13
VBitstream Vera Sans Mono
p74
sg15
I700
sg16
g12
sg17
g12
sg18
VC:\u005cPython27\u005cArcGIS10.8\u005clib\u005csite-packages\u005cmatplotlib\u005cmpl-data\u005cfonts\u005cttf\u005cVeraMoBd.ttf
p75
sg20
g21
sbag1
(g8
g3
NtRp76
(dp77
g11
g12
sg13
VSTIXNonUnicode
p78
sg15
I400
sg16
g12
sg17
g12
sg18
VC:\u005cPython27\u005cArcGIS10.8\u005clib\u005csite-packages\u005cmatplotlib\u005cmpl-data\u005cfonts\u005cttf\u005cSTIXNonUni.ttf
p79
sg20
g21
sbag1
(g8
g3
NtRp80
(dp81
g11
g12
sg13
VBitstream Vera Serif
p82
sg15
I400
sg16
g12
sg17
g12
sg18
VC:\u005cPython27\u005cArcGIS10.8\u005clib\u005csite-packages\u005cmatplotlib\u005cmpl-data\u005cfonts\u005cttf\u005cVeraSe.ttf
p83
sg20
g21
sbag1
(g8
g3
NtRp84
(dp85
g11
g12
sg13
Vcmss10
p86
sg15
I400
sg16
g12
sg17
g12
sg18
VC:\u005cPython27\u005cArcGIS10.8\u005clib\u005csite-packages\u005cmatplotlib\u005cmpl-data\u005cfonts\u005cttf\u005ccmss10.ttf
p87
sg20
g21
sbag1
(g8
g3
NtRp88
(dp89
g11
g45
sg13
VSTIXGeneral
p90
sg15
I700
sg16
g12
sg17
g12
sg18
VC:\u005cPython27\u005cArcGIS10.8\u005clib\u005csite-packages\u005cmatplotlib\u005cmpl-data\u005cfonts\u005cttf\u005cSTIXGeneralBolIta.ttf
p91
sg20
g21
sbag1
(g8
g3
NtRp92
(dp93
g11
g12
sg13
Vcmr10
p94
sg15
I400
sg16
g12
sg17
g12
sg18
VC:\u005cPython27\u005cArcGIS10.8\u005clib\u005csite-packages\u005cmatplotlib\u005cmpl-data\u005cfonts\u005cttf\u005ccmr10.ttf
p95
sg20
g21
sbag1
(g8
g3
NtRp96
(dp97
g11
g12
sg13
Vcmsy10
p98
sg15
I400
sg16
g12
sg17
g12
sg18
VC:\u005cPython27\u005cArcGIS10.8\u005clib\u005csite-packages\u005cmatplotlib\u005cmpl-data\u005cfonts\u005cttf\u005ccmsy10.ttf
p99
sg20
g21
sbag1
(g8
g3
NtRp100
(dp101
g11
g12
sg13
VSTIXSizeThreeSym
p102
sg15
I400
sg16
g12
sg17
g12
sg18
VC:\u005cPython27\u005cArcGIS10.8\u005clib\u005csite-packages\u005cmatplotlib\u005cmpl-data\u005cfonts\u005cttf\u005cSTIXSizThreeSymReg.ttf
p103
sg20
g21
sbag1
(g8
g3
NtRp104
(dp105
g11
g12
sg13
VSTIXSizeOneSym
p106
sg15
I400
sg16
g12
sg17
g12
sg18
VC:\u005cPython27\u005cArcGIS10.8\u005clib\u005csite-packages\u005cmatplotlib\u005cmpl-data\u005cfonts\u005cttf\u005cSTIXSizOneSymReg.ttf
p107
sg20
g21
sbag1
(g8
g3
NtRp108
(dp109
g11
g12
sg13
VBitstream Vera Sans
p110
sg15
I400
sg16
g12
sg17
g12
sg18
VC:\u005cPython27\u005cArcGIS10.8\u005clib\u005csite-packages\u005cmatplotlib\u005cmpl-data\u005cfonts\u005cttf\u005cVera.ttf
p111
sg20
g21
sbag1
(g8
g3
NtRp112
(dp113
g11
g12
sg13
VSTIXGeneral
p114
sg15
I700
sg16
g12
sg17
g12
sg18
VC:\u005cPython27\u005cArcGIS10.8\u005clib\u005csite-packages\u005cmatplotlib\u005cmpl-data\u005cfonts\u005cttf\u005cSTIXGeneralBol.ttf
p115
sg20
g21
sbag1
(g8
g3
NtRp116
(dp117
g11
g45
sg13
VSTIXGeneral
p118
sg15
I400
sg16
g12
sg17
g12
sg18
VC:\u005cPython27\u005cArcGIS10.8\u005clib\u005csite-packages\u005cmatplotlib\u005cmpl-data\u005cfonts\u005cttf\u005cSTIXGeneralItalic.ttf
p119
sg20
g21
sbag1
(g8
g3
NtRp120
(dp121
g11
g12
sg13
VSTIXSizeFiveSym
p122
sg15
I400
sg16
g12
sg17
g12
sg18
VC:\u005cPython27\u005cArcGIS10.8\u005clib\u005csite-packages\u005cmatplotlib\u005cmpl-data\u005cfonts\u005cttf\u005cSTIXSizFiveSymReg.ttf
p123
sg20
g21
sbag1
(g8
g3
NtRp124
(dp125
g11
g12
sg13
VSTIXSizeTwoSym
p126
sg15
I700
sg16
g12
sg17
g12
sg18
VC:\u005cPython27\u005cArcGIS10.8\u005clib\u005csite-packages\u005cmatplotlib\u005cmpl-data\u005cfonts\u005cttf\u005cSTIXSizTwoSymBol.ttf
p127
sg20
g21
sbag1
(g8
g3
NtRp128
(dp129
g11
g12
sg13
VSTIXNonUnicode
p130
sg15
I700
sg16
g12
sg17
g12
sg18
VC:\u005cPython27\u005cArcGIS10.8\u005clib\u005csite-packages\u005cmatplotlib\u005cmpl-data\u005cfonts\u005cttf\u005cSTIXNonUniBol.ttf
p131
sg20
g21
sbag1
(g8
g3
NtRp132
(dp133
g11
g28
sg13
VBitstream Vera Sans
p134
sg15
I400
sg16
g12
sg17
g12
sg18
VC:\u005cPython27\u005cArcGIS10.8\u005clib\u005csite-packages\u005cmatplotlib\u005cmpl-data\u005cfonts\u005cttf\u005cVeraIt.ttf
p135
sg20
g21
sbag1
(g8
g3
NtRp136
(dp137
g11
g12
sg13
Vcmmi10
p138
sg15
I400
sg16
g12
sg17
g12
sg18
VC:\u005cPython27\u005cArcGIS10.8\u005clib\u005csite-packages\u005cmatplotlib\u005cmpl-data\u005cfonts\u005cttf\u005ccmmi10.ttf
p139
sg20
g21
sbag1
(g8
g3
NtRp140
(dp141
g11
g12
sg13
VSTIXSizeTwoSym
p142
sg15
I400
sg16
g12
sg17
g12
sg18
VC:\u005cPython27\u005cArcGIS10.8\u005clib\u005csite-packages\u005cmatplotlib\u005cmpl-data\u005cfonts\u005cttf\u005cSTIXSizTwoSymReg.ttf
p143
sg20
g21
sbag1
(g8
g3
NtRp144
(dp145
g11
g12
sg13
VBitstream Vera Sans
p146
sg15
I700
sg16
g12
sg17
g12
sg18
VC:\u005cPython27\u005cArcGIS10.8\u005clib\u005csite-packages\u005cmatplotlib\u005cmpl-data\u005cfonts\u005cttf\u005cVeraBd.ttf
p147
sg20
g21
sbag1
(g8
g3
NtRp148
(dp149
g11
g12
sg13
VSTIXGeneral
p150
sg15
I400
sg16
g12
sg17
g12
sg18
VC:\u005cPython27\u005cArcGIS10.8\u005clib\u005csite-packages\u005cmatplotlib\u005cmpl-data\u005cfonts\u005cttf\u005cSTIXGeneral.ttf
p151
sg20
g21
sbag1
(g8
g3
NtRp152
(dp153
g11
g12
sg13
VBitstream Vera Serif
p154
sg15
I700
sg16
g12
sg17
g12
sg18
VC:\u005cPython27\u005cArcGIS10.8\u005clib\u005csite-packages\u005cmatplotlib\u005cmpl-data\u005cfonts\u005cttf\u005cVeraSeBd.ttf
p155
sg20
g21
sbag1
(g8
g3
NtRp156
(dp157
g11
g12
sg13
VGeezigna
p158
sg15
I400
sg16
g12
sg17
g12
sg18
Vc:\u005cwindows\u005cfonts\u005cgeezenga.ttf
p159
sg20
g21
sbag1
(g8
g3
NtRp160
(dp161
g11
g45
sg13
VHigh Tower Text
p162
sg15
I400
sg16
g12
sg17
g12
sg18
VC:\u005cWINDOWS\u005cFonts\u005cHTOWERTI.TTF
p163
sg20
g21
sbag1
(g8
g3
NtRp164
(dp165
g11
g12
sg13
VFootlight MT Light
p166
sg15
I200
sg16
g12
sg17
g12
sg18
Vc:\u005cwindows\u005cfonts\u005cftltlt.ttf
p167
sg20
g21
sbag1
(g8
g3
NtRp168
(dp169
g11
g45
sg13
VComic Sans MS
p170
sg15
I400
sg16
g12
sg17
g12
sg18
VC:\u005cWINDOWS\u005cFonts\u005ccomici.ttf
p171
sg20
g21
sbag1
(g8
g3
NtRp172
(dp173
g11
g12
sg13
VCambria
p174
sg15
I700
sg16
g12
sg17
g12
sg18
Vc:\u005cwindows\u005cfonts\u005ccambriab.ttf
p175
sg20
g21
sbag1
(g8
g3
NtRp176
(dp177
g11
g12
sg13
VSansSerif
p178
sg15
I700
sg16
g12
sg17
g12
sg18
Vc:\u005cwindows\u005cfonts\u005csanssb__.ttf
p179
sg20
g21
sbag1
(g8
g3
NtRp180
(dp181
g11
g12
sg13
VESRI US MUTCD 2
p182
sg15
I400
sg16
g12
sg17
g12
sg18
VC:\u005cWINDOWS\u005cFonts\u005cesri_48.ttf
p183
sg20
g21
sbag1
(g8
g3
NtRp184
(dp185
g11
g45
sg13
VArial
p186
sg15
I400
sg16
g12
sg17
g12
sg18
Vc:\u005cwindows\u005cfonts\u005cariali.ttf
p187
sg20
g21
sbag1
(g8
g3
NtRp188
(dp189
g11
g45
sg13
VSwis721 BlkCn BT
p190
sg15
I900
sg16
Vcondensed
p191
sg17
g12
sg18
VC:\u005cWINDOWS\u005cFonts\u005cswisscki.ttf
p192
sg20
g21
sbag1
(g8
g3
NtRp193
(dp194
g11
g45
sg13
VBook Antiqua
p195
sg15
I400
sg16
g12
sg17
g12
sg18
VC:\u005cWINDOWS\u005cFonts\u005cANTQUAI.TTF
p196
sg20
g21
sbag1
(g8
g3
NtRp197
(dp198
g11
g12
sg13
VTrebuchet MS
p199
sg15
I700
sg16
g12
sg17
g12
sg18
Vc:\u005cwindows\u005cfonts\u005ctrebucbd.ttf
p200
sg20
g21
sbag1
(g8
g3
NtRp201
(dp202
g11
g12
sg13
VESRI Ordnance Survey
p203
sg15
I400
sg16
g12
sg17
g12
sg18
VC:\u005cWINDOWS\u005cFonts\u005cesri_121.ttf
p204
sg20
g21
sbag1
(g8
g3
NtRp205
(dp206
g11
g45
sg13
VBell MT
p207
sg15
I400
sg16
g12
sg17
g12
sg18
Vc:\u005cwindows\u005cfonts\u005cbelli.ttf
p208
sg20
g21
sbag1
(g8
g3
NtRp209
(dp210
g11
g45
sg13
VBodoni MT
p211
sg15
I900
sg16
g12
sg17
g12
sg18
Vc:\u005cwindows\u005cfonts\u005cbod_blai.ttf
p212
sg20
g21
sbag1
(g8
g3
NtRp213
(dp214
g11
g12
sg13
VRockwell Extra Bold
p215
sg15
I700
sg16
g12
sg17
g12
sg18
VC:\u005cWINDOWS\u005cFonts\u005cROCKEB.TTF
p216
sg20
g21
sbag1
(g8
g3
NtRp217
(dp218
g11
g12
sg13
VGreekS
p219
sg15
I400
sg16
g12
sg17
g12
sg18
Vc:\u005cwindows\u005cfonts\u005cgreeks__.ttf
p220
sg20
g21
sbag1
(g8
g3
NtRp221
(dp222
g11
g12
sg13
VMarlett
p223
sg15
I400
sg16
g12
sg17
g12
sg18
VC:\u005cWINDOWS\u005cFonts\u005cmarlett.ttf
p224
sg20
g21
sbag1
(g8
g3
NtRp225
(dp226
g11
g45
sg13
VArtifakt Element
p227
sg15
I400
sg16
g12
sg17
g12
sg18
Vc:\u005cwindows\u005cfonts\u005cartifakt element italic.ttf
p228
sg20
g21
sbag1
(g8
g3
NtRp229
(dp230
g11
g12
sg13
VCentury Gothic
p231
sg15
I400
sg16
g12
sg17
g12
sg18
VC:\u005cWINDOWS\u005cFonts\u005cGOTHIC.TTF
p232
sg20
g21
sbag1
(g8
g3
NtRp233
(dp234
g11
g12
sg13
VSegoe UI
p235
sg15
I400
sg16
g12
sg17
g12
sg18
VC:\u005cWINDOWS\u005cFonts\u005csegoeuisl.ttf
p236
sg20
g21
sbag1
(g8
g3
NtRp237
(dp238
g11
g12
sg13
VETHIOPIC
p239
sg15
I400
sg16
g12
sg17
g12
sg18
Vc:\u005cwindows\u005cfonts\u005ceth-1.ttf
p240
sg20
g21
sbag1
(g8
g3
NtRp241
(dp242
g11
g12
sg13
VMicrosoft Sans Serif
p243
sg15
I400
sg16
g12
sg17
g12
sg18
VC:\u005cWINDOWS\u005cFonts\u005cmicross.ttf
p244
sg20
g21
sbag1
(g8
g3
NtRp245
(dp246
g11
g12
sg13
VShowcard Gothic
p247
sg15
I400
sg16
g12
sg17
g12
sg18
VC:\u005cWINDOWS\u005cFonts\u005cSHOWG.TTF
p248
sg20
g21
sbag1
(g8
g3
NtRp249
(dp250
g11
g45
sg13
VCandara
p251
sg15
I700
sg16
g12
sg17
g12
sg18
VC:\u005cWINDOWS\u005cFonts\u005cCandaraz.ttf
p252
sg20
g21
sbag1
(g8
g3
NtRp253
(dp254
g11
g12
sg13
VMicrosoft Tai Le
p255
sg15
I700
sg16
g12
sg17
g12
sg18
Vc:\u005cwindows\u005cfonts\u005ctaileb.ttf
p256
sg20
g21
sbag1
(g8
g3
NtRp257
(dp258
g11
g12
sg13
VAgency FB
p259
sg15
I400
sg16
g12
sg17
g12
sg18
Vc:\u005cwindows\u005cfonts\u005cagencyr.ttf
p260
sg20
g21
sbag1
(g8
g3
NtRp261
(dp262
g11
g12
sg13
VFranklin Gothic Demi
p263
sg15
I600
sg16
g12
sg17
g12
sg18
Vc:\u005cwindows\u005cfonts\u005cfradm.ttf
p264
sg20
g21
sbag1
(g8
g3
NtRp265
(dp266
g11
g12
sg13
VESRI Enviro Hazard Incident
p267
sg15
I400
sg16
g12
sg17
g12
sg18
Vc:\u005cwindows\u005cfonts\u005cesri_800.ttf
p268
sg20
g21
sbag1
(g8
g3
NtRp269
(dp270
g11
g45
sg13
VTrebuchet MS
p271
sg15
I700
sg16
g12
sg17
g12
sg18
Vc:\u005cwindows\u005cfonts\u005ctrebucbi.ttf
p272
sg20
g21
sbag1
(g8
g3
NtRp273
(dp274
g11
g12
sg13
VMonotype Corsiva
p275
sg15
I400
sg16
g12
sg17
g12
sg18
Vc:\u005cwindows\u005cfonts\u005cmtcorsva.ttf
p276
sg20
g21
sbag1
(g8
g3
NtRp277
(dp278
g11
g45
sg13
VItalicC
p279
sg15
I400
sg16
g12
sg17
g12
sg18
Vc:\u005cwindows\u005cfonts\u005citalicc_.ttf
p280
sg20
g21
sbag1
(g8
g3
NtRp281
(dp282
g11
g45
sg13
VSegoe UI
p283
sg15
I700
sg16
g12
sg17
g12
sg18
Vc:\u005cwindows\u005cfonts\u005csegoeuiz.ttf
p284
sg20
g21
sbag1
(g8
g3
NtRp285
(dp286
g11
g12
sg13
VBodoni MT
p287
sg15
I400
sg16
g191
sg17
g12
sg18
Vc:\u005cwindows\u005cfonts\u005cbod_cr.ttf
p288
sg20
g21
sbag1
(g8
g3
NtRp289
(dp290
g11
g45
sg13
VLucida Calligraphy
p291
sg15
I400
sg16
g12
sg17
g12
sg18
VC:\u005cWINDOWS\u005cFonts\u005cLCALLIG.TTF
p292
sg20
g21
sbag1
(g8
g3
NtRp293
(dp294
g11
g45
sg13
VBodoni MT
p295
sg15
I700
sg16
g12
sg17
g12
sg18
Vc:\u005cwindows\u005cfonts\u005cbod_bi.ttf
p296
sg20
g21
sbag1
(g8
g3
NtRp297
(dp298
g11
g45
sg13
VGill Sans MT
p299
sg15
I400
sg16
g12
sg17
g12
sg18
Vc:\u005cwindows\u005cfonts\u005cgili____.ttf
p300
sg20
g21
sbag1
(g8
g3
NtRp301
(dp302
g11
g45
sg13
VSegoe UI
p303
sg15
I400
sg16
g12
sg17
g12
sg18
Vc:\u005cwindows\u005cfonts\u005cseguibli.ttf
p304
sg20
g21
sbag1
(g8
g3
NtRp305
(dp306
g11
g12
sg13
VImprint MT Shadow
p307
sg15
I400
sg16
g12
sg17
g12
sg18
Vc:\u005cwindows\u005cfonts\u005cimprisha.ttf
p308
sg20
g21
sbag1
(g8
g3
NtRp309
(dp310
g11
g12
sg13
VPanRoman
p311
sg15
I500
sg16
g12
sg17
g12
sg18
Vc:\u005cwindows\u005cfonts\u005cpanroman.ttf
p312
sg20
g21
sbag1
(g8
g3
NtRp313
(dp314
g11
g45
sg13
VSegoe UI
p315
sg15
I400
sg16
g12
sg17
g12
sg18
Vc:\u005cwindows\u005cfonts\u005cseguisbi.ttf
p316
sg20
g21
sbag1
(g8
g3
NtRp317
(dp318
g11
g45
sg13
VFranklin Gothic Demi
p319
sg15
I600
sg16
g12
sg17
g12
sg18
VC:\u005cWINDOWS\u005cFonts\u005cFRADMIT.TTF
p320
sg20
g21
sbag1
(g8
g3
NtRp321
(dp322
g11
g12
sg13
VMagneto
p323
sg15
I700
sg16
g12
sg17
g12
sg18
Vc:\u005cwindows\u005cfonts\u005cmagnetob.ttf
p324
sg20
g21
sbag1
(g8
g3
NtRp325
(dp326
g11
g12
sg13
VTw Cen MT Condensed
p327
sg15
I700
sg16
g191
sg17
g12
sg18
Vc:\u005cwindows\u005cfonts\u005ctccb____.ttf
p328
sg20
g21
sbag1
(g8
g3
NtRp329
(dp330
g11
g12
sg13
VTxt
p331
sg15
I400
sg16
g12
sg17
g12
sg18
Vc:\u005cwindows\u005cfonts\u005ctxt_____.ttf
p332
sg20
g21
sbag1
(g8
g3
NtRp333
(dp334
g11
g12
sg13
VGENISO
p335
sg15
I400
sg16
g12
sg17
g12
sg18
Vc:\u005cwindows\u005cfonts\u005cgeniso.ttf
p336
sg20
g21
sbag1
(g8
g3
NtRp337
(dp338
g11
g12
sg13
VSwis721 Cn BT
p339
sg15
I700
sg16
g191
sg17
g12
sg18
VC:\u005cWINDOWS\u005cFonts\u005cswisscb.ttf
p340
sg20
g21
sbag1
(g8
g3
NtRp341
(dp342
g11
g12
sg13
VSegoe UI
p343
sg15
I400
sg16
g12
sg17
g12
sg18
Vc:\u005cwindows\u005cfonts\u005cseguisb.ttf
p344
sg20
g21
sbag1
(g8
g3
NtRp345
(dp346
g11
g45
sg13
VISOCPEUR
p347
sg15
I400
sg16
g12
sg17
g12
sg18
Vc:\u005cwindows\u005cfonts\u005cisocpeui.ttf
p348
sg20
g21
sbag1
(g8
g3
NtRp349
(dp350
g11
g45
sg13
VSwis721 Blk BT
p351
sg15
I900
sg16
g12
sg17
g12
sg18
VC:\u005cWINDOWS\u005cFonts\u005cswisski.ttf
p352
sg20
g21
sbag1
(g8
g3
NtRp353
(dp354
g11
g12
sg13
VESRI Mil2525C Modifiers
p355
sg15
I400
sg16
g12
sg17
g12
sg18
Vc:\u005cwindows\u005cfonts\u005cesri_27mcr_2.ttf
p356
sg20
g21
sbag1
(g8
g3
NtRp357
(dp358
g11
g45
sg13
VTimes New Roman
p359
sg15
I500
sg16
g12
sg17
g12
sg18
VC:\u005cWINDOWS\u005cFonts\u005ctimesi.ttf
p360
sg20
g21
sbag1
(g8
g3
NtRp361
(dp362
g11
g12
sg13
VPerpetua
p363
sg15
I400
sg16
g12
sg17
g12
sg18
VC:\u005cWINDOWS\u005cFonts\u005cPER_____.TTF
p364
sg20
g21
sbag1
(g8
g3
NtRp365
(dp366
g11
g45
sg13
VGeorgia
p367
sg15
I700
sg16
g12
sg17
g12
sg18
VC:\u005cWINDOWS\u005cFonts\u005cgeorgiaz.ttf
p368
sg20
g21
sbag1
(g8
g3
NtRp369
(dp370
g11
g45
sg13
VConstantia
p371
sg15
I700
sg16
g12
sg17
g12
sg18
Vc:\u005cwindows\u005cfonts\u005cconstanz.ttf
p372
sg20
g21
sbag1
(g8
g3
NtRp373
(dp374
g11
g12
sg13
VConstantia
p375
sg15
I700
sg16
g12
sg17
g12
sg18
VC:\u005cWINDOWS\u005cFonts\u005cconstanb.ttf
p376
sg20
g21
sbag1
(g8
g3
NtRp377
(dp378
g11
g12
sg13
VSymusic
p379
sg15
I400
sg16
g12
sg17
g12
sg18
VC:\u005cWINDOWS\u005cFonts\u005csymusic_.ttf
p380
sg20
g21
sbag1
(g8
g3
NtRp381
(dp382
g11
g12
sg13
VGill Sans MT
p383
sg15
I400
sg16
g12
sg17
g12
sg18
VC:\u005cWINDOWS\u005cFonts\u005cGIL_____.TTF
p384
sg20
g21
sbag1
(g8
g3
NtRp385
(dp386
g11
g12
sg13
VISOCP2
p387
sg15
I400
sg16
g12
sg17
g12
sg18
Vc:\u005cwindows\u005cfonts\u005cisocp2__.ttf
p388
sg20
g21
sbag1
(g8
g3
NtRp389
(dp390
g11
g12
sg13
VESRI IGL Font16
p391
sg15
I400
sg16
g12
sg17
g12
sg18
Vc:\u005cwindows\u005cfonts\u005cesri_216.ttf
p392
sg20
g21
sbag1
(g8
g3
NtRp393
(dp394
g11
g12
sg13
VAcadEref
p395
sg15
I400
sg16
g12
sg17
g12
sg18
Vc:\u005cwindows\u005cfonts\u005cacaderef.ttf
p396
sg20
g21
sbag1
(g8
g3
NtRp397
(dp398
g11
g12
sg13
VTahoma
p399
sg15
I700
sg16
g12
sg17
g12
sg18
Vc:\u005cwindows\u005cfonts\u005ctahomabd.ttf
p400
sg20
g21
sbag1
(g8
g3
NtRp401
(dp402
g11
g12
sg13
VSymeteo
p403
sg15
I400
sg16
g12
sg17
g12
sg18
Vc:\u005cwindows\u005cfonts\u005csymeteo_.ttf
p404
sg20
g21
sbag1
(g8
g3
NtRp405
(dp406
g11
g45
sg13
VCalifornian FB
p407
sg15
I400
sg16
g12
sg17
g12
sg18
Vc:\u005cwindows\u005cfonts\u005ccalifi.ttf
p408
sg20
g21
sbag1
(g8
g3
NtRp409
(dp410
g11
g12
sg13
VBodoni MT
p411
sg15
I400
sg16
g12
sg17
g12
sg18
VC:\u005cWINDOWS\u005cFonts\u005cBOD_R.TTF
p412
sg20
g21
sbag1
(g8
g3
NtRp413
(dp414
g11
g12
sg13
VESRI Hazardous Materials
p415
sg15
I400
sg16
g12
sg17
g12
sg18
Vc:\u005cwindows\u005cfonts\u005cesri_803.ttf
p416
sg20
g21
sbag1
(g8
g3
NtRp417
(dp418
g11
g12
sg13
VKunstler Script
p419
sg15
I400
sg16
g12
sg17
g12
sg18
Vc:\u005cwindows\u005cfonts\u005ckunstler.ttf
p420
sg20
g21
sbag1
(g8
g3
NtRp421
(dp422
g11
g12
sg13
VConsolas
p423
sg15
I400
sg16
g12
sg17
g12
sg18
Vc:\u005cwindows\u005cfonts\u005cconsola.ttf
p424
sg20
g21
sbag1
(g8
g3
NtRp425
(dp426
g11
g12
sg13
VCurlz MT
p427
sg15
I400
sg16
g12
sg17
g12
sg18
VC:\u005cWINDOWS\u005cFonts\u005cCURLZ___.TTF
p428
sg20
g21
sbag1
(g8
g3
NtRp429
(dp430
g11
g12
sg13
VSyastro
p431
sg15
I400
sg16
g12
sg17
g12
sg18
Vc:\u005cwindows\u005cfonts\u005csyastro_.ttf
p432
sg20
g21
sbag1
(g8
g3
NtRp433
(dp434
g11
g45
sg13
VPerpetua
p435
sg15
I700
sg16
g12
sg17
g12
sg18
VC:\u005cWINDOWS\u005cFonts\u005cPERBI___.TTF
p436
sg20
g21
sbag1
(g8
g3
NtRp437
(dp438
g11
g12
sg13
VOld English Text MT
p439
sg15
I400
sg16
g12
sg17
g12
sg18
VC:\u005cWINDOWS\u005cFonts\u005cOLDENGL.TTF
p440
sg20
g21
sbag1
(g8
g3
NtRp441
(dp442
g11
g12
sg13
VParchment
p443
sg15
I400
sg16
g12
sg17
g12
sg18
VC:\u005cWINDOWS\u005cFonts\u005cPARCHM.TTF
p444
sg20
g21
sbag1
(g8
g3
NtRp445
(dp446
g11
g12
sg13
VESRI NIMA VMAP1&2 LN
p447
sg15
I400
sg16
g12
sg17
g12
sg18
Vc:\u005cwindows\u005cfonts\u005cesri_15.ttf
p448
sg20
g21
sbag1
(g8
g3
NtRp449
(dp450
g11
g12
sg13
VTw Cen MT Condensed Extra Bold
p451
sg15
I700
sg16
g191
sg17
g12
sg18
VC:\u005cWINDOWS\u005cFonts\u005cTCCEB.TTF
p452
sg20
g21
sbag1
(g8
g3
NtRp453
(dp454
g11
g12
sg13
VArial
p455
sg15
I700
sg16
g12
sg17
g12
sg18
Vc:\u005cwindows\u005cfonts\u005carialbd.ttf
p456
sg20
g21
sbag1
(g8
g3
NtRp457
(dp458
g11
g12
sg13
VBerlin Sans FB
p459
sg15
I400
sg16
g12
sg17
g12
sg18
VC:\u005cWINDOWS\u005cFonts\u005cBRLNSR.TTF
p460
sg20
g21
sbag1
(g8
g3
NtRp461
(dp462
g11
g12
sg13
VSwis721 BdOul BT
p463
sg15
I700
sg16
g12
sg17
g12
sg18
VC:\u005cWINDOWS\u005cFonts\u005cswissbo.ttf
p464
sg20
g21
sbag1
(g8
g3
NtRp465
(dp466
g11
g12
sg13
VRomanS
p467
sg15
I500
sg16
g12
sg17
g12
sg18
VC:\u005cWINDOWS\u005cFonts\u005cromans__.ttf
p468
sg20
g21
sbag1
(g8
g3
NtRp469
(dp470
g11
g12
sg13
VBodoni MT
p471
sg15
I400
sg16
g191
sg17
g12
sg18
VC:\u005cWINDOWS\u005cFonts\u005cBOD_CR.TTF
p472
sg20
g21
sbag1
(g8
g3
NtRp473
(dp474
g11
g45
sg13
VVivaldi
p475
sg15
I400
sg16
g12
sg17
g12
sg18
VC:\u005cWINDOWS\u005cFonts\u005cVIVALDII.TTF
p476
sg20
g21
sbag1
(g8
g3
NtRp477
(dp478
g11
g12
sg13
VESRI Enviro Hazard Sites
p479
sg15
I400
sg16
g12
sg17
g12
sg18
VC:\u005cWINDOWS\u005cFonts\u005cesri_802.ttf
p480
sg20
g21
sbag1
(g8
g3
NtRp481
(dp482
g11
g12
sg13
VTechnicBold
p483
sg15
I700
sg16
g12
sg17
g12
sg18
VC:\u005cWINDOWS\u005cFonts\u005ctechb___.ttf
p484
sg20
g21
sbag1
(g8
g3
NtRp485
(dp486
g11
g12
sg13
VBodoni MT
p487
sg15
I900
sg16
g12
sg17
g12
sg18
VC:\u005cWINDOWS\u005cFonts\u005cBOD_BLAR.TTF
p488
sg20
g21
sbag1
(g8
g3
NtRp489
(dp490
g11
g45
sg13
VVerdana
p491
sg15
I700
sg16
g12
sg17
g12
sg18
Vc:\u005cwindows\u005cfonts\u005cverdanaz.ttf
p492
sg20
g21
sbag1
(g8
g3
NtRp493
(dp494
g11
g12
sg13
VLucida Fax
p495
sg15
I700
sg16
g12
sg17
g12
sg18
Vc:\u005cwindows\u005cfonts\u005clfaxd.ttf
p496
sg20
g21
sbag1
(g8
g3
NtRp497
(dp498
g11
g45
sg13
VGeorgia
p499
sg15
I400
sg16
g12
sg17
g12
sg18
VC:\u005cWINDOWS\u005cFonts\u005cgeorgiai.ttf
p500
sg20
g21
sbag1
(g8
g3
NtRp501
(dp502
g11
g12
sg13
VSymath
p503
sg15
I400
sg16
g12
sg17
g12
sg18
Vc:\u005cwindows\u005cfonts\u005csymath__.ttf
p504
sg20
g21
sbag1
(g8
g3
NtRp505
(dp506
g11
g12
sg13
VMaiandra GD
p507
sg15
I400
sg16
g12
sg17
g12
sg18
Vc:\u005cwindows\u005cfonts\u005cmaian.ttf
p508
sg20
g21
sbag1
(g8
g3
NtRp509
(dp510
g11
g45
sg13
VFranklin Gothic Book
p511
sg15
I400
sg16
g12
sg17
g12
sg18
Vc:\u005cwindows\u005cfonts\u005cfrabkit.ttf
p512
sg20
g21
sbag1
(g8
g3
NtRp513
(dp514
g11
g45
sg13
VConstantia
p515
sg15
I400
sg16
g12
sg17
g12
sg18
VC:\u005cWINDOWS\u005cFonts\u005cconstani.ttf
p516
sg20
g21
sbag1
(g8
g3
NtRp517
(dp518
g11
g12
sg13
VGill Sans MT Condensed
p519
sg15
I400
sg16
g191
sg17
g12
sg18
VC:\u005cWINDOWS\u005cFonts\u005cGILC____.TTF
p520
sg20
g21
sbag1
(g8
g3
NtRp521
(dp522
g11
g12
sg13
VTimes New Roman
p523
sg15
I700
sg16
g12
sg17
g12
sg18
VC:\u005cWINDOWS\u005cFonts\u005ctimesbd.ttf
p524
sg20
g21
sbag1
(g8
g3
NtRp525
(dp526
g11
g12
sg13
VOnyx
p527
sg15
I400
sg16
g12
sg17
g12
sg18
Vc:\u005cwindows\u005cfonts\u005conyx.ttf
p528
sg20
g21
sbag1
(g8
g3
NtRp529
(dp530
g11
g12
sg13
VScriptC
p531
sg15
I400
sg16
g12
sg17
g12
sg18
VC:\u005cWINDOWS\u005cFonts\u005cscriptc_.ttf
p532
sg20
g21
sbag1
(g8
g3
NtRp533
(dp534
g11
g12
sg13
VGe'ez-1
p535
sg15
I400
sg16
g12
sg17
g12
sg18
VC:\u005cWINDOWS\u005cFonts\u005cGeez1.ttf
p536
sg20
g21
sbag1
(g8
g3
NtRp537
(dp538
g11
g12
sg13
VESRI Fire Incident NFPA
p539
sg15
I400
sg16
g12
sg17
g12
sg18
VC:\u005cWINDOWS\u005cFonts\u005cesri_804.ttf
p540
sg20
g21
sbag1
(g8
g3
NtRp541
(dp542
g11
g12
sg13
VESRI SDS 1.95 2
p543
sg15
I400
sg16
g12
sg17
g12
sg18
Vc:\u005cwindows\u005cfonts\u005cesri_131.ttf
p544
sg20
g21
sbag1
(g8
g3
NtRp545
(dp546
g11
g12
sg13
VCommercialScript BT
p547
sg15
I400
sg16
g12
sg17
g12
sg18
VC:\u005cWINDOWS\u005cFonts\u005ccomsc.ttf
p548
sg20
g21
sbag1
(g8
g3
NtRp549
(dp550
g11
g12
sg13
VBook Antiqua
p551
sg15
I700
sg16
g12
sg17
g12
sg18
VC:\u005cWINDOWS\u005cFonts\u005cANTQUAB.TTF
p552
sg20
g21
sbag1
(g8
g3
NtRp553
(dp554
g11
g12
sg13
VESRI ERS Infrastructures S1
p555
sg15
I400
sg16
g12
sg17
g12
sg18
VC:\u005cWINDOWS\u005cFonts\u005cesri_832.ttf
p556
sg20
g21
sbag1
(g8
g3
NtRp557
(dp558
g11
g12
sg13
VESRI IGL Font23
p559
sg15
I400
sg16
g12
sg17
g12
sg18
VC:\u005cWINDOWS\u005cFonts\u005cesri_223.ttf
p560
sg20
g21
sbag1
(g8
g3
NtRp561
(dp562
g11
g12
sg13
VRomanC
p563
sg15
I500
sg16
g12
sg17
g12
sg18
Vc:\u005cwindows\u005cfonts\u005cromanc__.ttf
p564
sg20
g21
sbag1
(g8
g3
NtRp565
(dp566
g11
g12
sg13
VET-NEBAR2000
p567
sg15
I400
sg16
g12
sg17
g12
sg18
VC:\u005cWINDOWS\u005cFonts\u005cETNEBAR2.TTF
p568
sg20
g21
sbag1
(g8
g3
NtRp569
(dp570
g11
g45
sg13
VBook Antiqua
p571
sg15
I700
sg16
g12
sg17
g12
sg18
Vc:\u005cwindows\u005cfonts\u005cantquabi.ttf
p572
sg20
g21
sbag1
(g8
g3
NtRp573
(dp574
g11
g12
sg13
VCityBlueprint
p575
sg15
I400
sg16
g12
sg17
g12
sg18
Vc:\u005cwindows\u005cfonts\u005ccityb___.ttf
p576
sg20
g21
sbag1
(g8
g3
NtRp577
(dp578
g11
g12
sg13
VCorbel
p579
sg15
I700
sg16
g12
sg17
g12
sg18
Vc:\u005cwindows\u005cfonts\u005ccorbelb.ttf
p580
sg20
g21
sbag1
(g8
g3
NtRp581
(dp582
g11
g12
sg13
VGaramond
p583
sg15
I400
sg16
g12
sg17
g12
sg18
Vc:\u005cwindows\u005cfonts\u005cgara.ttf
p584
sg20
g21
sbag1
(g8
g3
NtRp585
(dp586
g11
g45
sg13
VTimes New Roman
p587
sg15
I700
sg16
g12
sg17
g12
sg18
VC:\u005cWINDOWS\u005cFonts\u005ctimesbi.ttf
p588
sg20
g21
sbag1
(g8
g3
NtRp589
(dp590
g11
g12
sg13
VESRI Geology AGSO 1
p591
sg15
I400
sg16
g12
sg17
g12
sg18
Vc:\u005cwindows\u005cfonts\u005cesri_500.ttf
p592
sg20
g21
sbag1
(g8
g3
NtRp593
(dp594
g11
g12
sg13
VGe'ez-1 Numbers
p595
sg15
I400
sg16
g12
sg17
g12
sg18
VC:\u005cWINDOWS\u005cFonts\u005cGeez4.ttf
p596
sg20
g21
sbag1
(g8
g3
NtRp597
(dp598
g11
g12
sg13
VChiller
p599
sg15
I400
sg16
g12
sg17
g12
sg18
VC:\u005cWINDOWS\u005cFonts\u005cCHILLER.TTF
p600
sg20
g21
sbag1
(g8
g3
NtRp601
(dp602
g11
g12
sg13
VSegoe MDL2 Assets
p603
sg15
I400
sg16
g12
sg17
g12
sg18
VC:\u005cWINDOWS\u005cFonts\u005csegmdl2.ttf
p604
sg20
g21
sbag1
(g8
g3
NtRp605
(dp606
g11
g12
sg13
VInformal Roman
p607
sg15
I500
sg16
g12
sg17
g12
sg18
Vc:\u005cwindows\u005cfonts\u005cinfroman.ttf
p608
sg20
g21
sbag1
(g8
g3
NtRp609
(dp610
g11
g12
sg13
VESRI MilRed 01
p611
sg15
I400
sg16
g12
sg17
g12
sg18
VC:\u005cWINDOWS\u005cFonts\u005cesri_20.ttf
p612
sg20
g21
sbag1
(g8
g3
NtRp613
(dp614
g11
g12
sg13
VEras Bold ITC
p615
sg15
I700
sg16
g12
sg17
g12
sg18
VC:\u005cWINDOWS\u005cFonts\u005cERASBD.TTF
p616
sg20
g21
sbag1
(g8
g3
NtRp617
(dp618
g11
g12
sg13
VRockwell Condensed
p619
sg15
I700
sg16
g191
sg17
g12
sg18
VC:\u005cWINDOWS\u005cFonts\u005cROCCB___.TTF
p620
sg20
g21
sbag1
(g8
g3
NtRp621
(dp622
g11
g12
sg13
VESRI Geology USGS 95-525
p623
sg15
I400
sg16
g12
sg17
g12
sg18
VC:\u005cWINDOWS\u005cFonts\u005cesri_400.ttf
p624
sg20
g21
sbag1
(g8
g3
NtRp625
(dp626
g11
g12
sg13
VAgency FB
p627
sg15
I700
sg16
g12
sg17
g12
sg18
Vc:\u005cwindows\u005cfonts\u005cagencyb.ttf
p628
sg20
g21
sbag1
(g8
g3
NtRp629
(dp630
g11
g12
sg13
VRockwell Condensed
p631
sg15
I400
sg16
g191
sg17
g12
sg18
VC:\u005cWINDOWS\u005cFonts\u005cROCC____.TTF
p632
sg20
g21
sbag1
(g8
g3
NtRp633
(dp634
g11
g12
sg13
VGeorgia
p635
sg15
I700
sg16
g12
sg17
g12
sg18
Vc:\u005cwindows\u005cfonts\u005cgeorgiab.ttf
p636
sg20
g21
sbag1
(g8
g3
NtRp637
(dp638
g11
g12
sg13
VPalace Script MT
p639
sg15
I400
sg16
g12
sg17
g12
sg18
VC:\u005cWINDOWS\u005cFonts\u005cPALSCRI.TTF
p640
sg20
g21
sbag1
(g8
g3
NtRp641
(dp642
g11
g12
sg13
VNirmala UI
p643
sg15
I400
sg16
g12
sg17
g12
sg18
Vc:\u005cwindows\u005cfonts\u005cnirmala.ttf
p644
sg20
g21
sbag1
(g8
g3
NtRp645
(dp646
g11
g12
sg13
VAGF - Dawit
p647
sg15
I400
sg16
g12
sg17
g12
sg18
VC:\u005cWINDOWS\u005cFonts\u005cAgafari_Dawit.ttf
p648
sg20
g21
sbag1
(g8
g3
NtRp649
(dp650
g11
g12
sg13
VCooper Black
p651
sg15
I900
sg16
g12
sg17
g12
sg18
Vc:\u005cwindows\u005cfonts\u005ccoopbl.ttf
p652
sg20
g21
sbag1
(g8
g3
NtRp653
(dp654
g11
g12
sg13
VArial
p655
sg15
I900
sg16
g12
sg17
g12
sg18
VC:\u005cWINDOWS\u005cFonts\u005cariblk.ttf
p656
sg20
g21
sbag1
(g8
g3
NtRp657
(dp658
g11
g12
sg13
VSegoe UI Emoji
p659
sg15
I400
sg16
g12
sg17
g12
sg18
Vc:\u005cwindows\u005cfonts\u005cseguiemj.ttf
p660
sg20
g21
sbag1
(g8
g3
NtRp661
(dp662
g11
g28
sg13
VLucida Sans Typewriter
p663
sg15
I700
sg16
g12
sg17
g12
sg18
Vc:\u005cwindows\u005cfonts\u005cltypebo.ttf
p664
sg20
g21
sbag1
(g8
g3
NtRp665
(dp666
g11
g12
sg13
VPerpetua Titling MT
p667
sg15
I700
sg16
g12
sg17
g12
sg18
VC:\u005cWINDOWS\u005cFonts\u005cPERTIBD.TTF
p668
sg20
g21
sbag1
(g8
g3
NtRp669
(dp670
g11
g12
sg13
VImpact
p671
sg15
I400
sg16
g12
sg17
g12
sg18
VC:\u005cWINDOWS\u005cFonts\u005cimpact.ttf
p672
sg20
g21
sbag1
(g8
g3
NtRp673
(dp674
g11
g12
sg13
VPerpetua Titling MT
p675
sg15
I200
sg16
g12
sg17
g12
sg18
VC:\u005cWINDOWS\u005cFonts\u005cPERTILI.TTF
p676
sg20
g21
sbag1
(g8
g3
NtRp677
(dp678
g11
g12
sg13
VBahnschrift
p679
sg15
I400
sg16
g12
sg17
g12
sg18
Vc:\u005cwindows\u005cfonts\u005cbahnschrift.ttf
p680
sg20
g21
sbag1
(g8
g3
NtRp681
(dp682
g11
g12
sg13
VArtifakt Element
p683
sg15
I700
sg16
g12
sg17
g12
sg18
VC:\u005cWINDOWS\u005cFonts\u005cArtifakt Element Bold.ttf
p684
sg20
g21
sbag1
(g8
g3
NtRp685
(dp686
g11
g12
sg13
VISOCP
p687
sg15
I400
sg16
g12
sg17
g12
sg18
Vc:\u005cwindows\u005cfonts\u005cisocp___.ttf
p688
sg20
g21
sbag1
(g8
g3
NtRp689
(dp690
g11
g12
sg13
VESRI ArcPad
p691
sg15
I400
sg16
g12
sg17
g12
sg18
VC:\u005cWINDOWS\u005cFonts\u005cesri_30s.ttf
p692
sg20
g21
sbag1
(g8
g3
NtRp693
(dp694
g11
g45
sg13
VArial
p695
sg15
I700
sg16
g191
sg17
g12
sg18
VC:\u005cWINDOWS\u005cFonts\u005cARIALNBI.TTF
p696
sg20
g21
sbag1
(g8
g3
NtRp697
(dp698
g11
g12
sg13
VModern No. 20
p699
sg15
I400
sg16
g12
sg17
g12
sg18
Vc:\u005cwindows\u005cfonts\u005cmod20.ttf
p700
sg20
g21
sbag1
(g8
g3
NtRp701
(dp702
g11
g45
sg13
VCentury Schoolbook
p703
sg15
I700
sg16
g12
sg17
g12
sg18
Vc:\u005cwindows\u005cfonts\u005cschlbkbi.ttf
p704
sg20
g21
sbag1
(g8
g3
NtRp705
(dp706
g11
g12
sg13
VKristen ITC
p707
sg15
I400
sg16
g12
sg17
g12
sg18
VC:\u005cWINDOWS\u005cFonts\u005cITCKRIST.TTF
p708
sg20
g21
sbag1
(g8
g3
NtRp709
(dp710
g11
g45
sg13
VTw Cen MT
p711
sg15
I400
sg16
g12
sg17
g12
sg18
VC:\u005cWINDOWS\u005cFonts\u005cTCMI____.TTF
p712
sg20
g21
sbag1
(g8
g3
NtRp713
(dp714
g11
g12
sg13
VMicrosoft New Tai Lue
p715
sg15
I700
sg16
g12
sg17
g12
sg18
VC:\u005cWINDOWS\u005cFonts\u005cntailub.ttf
p716
sg20
g21
sbag1
(g8
g3
NtRp717
(dp718
g11
g12
sg13
VOCR A Extended
p719
sg15
I400
sg16
g12
sg17
g12
sg18
Vc:\u005cwindows\u005cfonts\u005cocraext.ttf
p720
sg20
g21
sbag1
(g8
g3
NtRp721
(dp722
g11
g12
sg13
VVG2 Title
p723
sg15
I400
sg16
g12
sg17
g12
sg18
Vc:\u005cwindows\u005cfonts\u005cvg2title.ttf
p724
sg20
g21
sbag1
(g8
g3
NtRp725
(dp726
g11
g12
sg13
VESRI Crime Analysis
p727
sg15
I400
sg16
g12
sg17
g12
sg18
VC:\u005cWINDOWS\u005cFonts\u005cesri_8.ttf
p728
sg20
g21
sbag1
(g8
g3
NtRp729
(dp730
g11
g12
sg13
VESRI Public1
p731
sg15
I400
sg16
g12
sg17
g12
sg18
VC:\u005cWINDOWS\u005cFonts\u005cesri_29.ttf
p732
sg20
g21
sbag1
(g8
g3
NtRp733
(dp734
g11
g12
sg13
VESRI IGL Font21
p735
sg15
I400
sg16
g12
sg17
g12
sg18
VC:\u005cWINDOWS\u005cFonts\u005cesri_221.ttf
p736
sg20
g21
sbag1
(g8
g3
NtRp737
(dp738
g11
g45
sg13
VLucida Sans
p739
sg15
I400
sg16
g12
sg17
g12
sg18
Vc:\u005cwindows\u005cfonts\u005clsansi.ttf
p740
sg20
g21
sbag1
(g8
g3
NtRp741
(dp742
g11
g45
sg13
VBodoni MT
p743
sg15
I700
sg16
g12
sg17
g12
sg18
VC:\u005cWINDOWS\u005cFonts\u005cBOD_BI.TTF
p744
sg20
g21
sbag1
(g8
g3
NtRp745
(dp746
g11
g12
sg13
VCorbel
p747
sg15
I200
sg16
g12
sg17
g12
sg18
VC:\u005cWINDOWS\u005cFonts\u005ccorbell.ttf
p748
sg20
g21
sbag1
(g8
g3
NtRp749
(dp750
g11
g12
sg13
VGabriola
p751
sg15
I400
sg16
g12
sg17
g12
sg18
VC:\u005cWINDOWS\u005cFonts\u005cGabriola.ttf
p752
sg20
g21
sbag1
(g8
g3
NtRp753
(dp754
g11
g12
sg13
VEras Medium ITC
p755
sg15
I500
sg16
g12
sg17
g12
sg18
Vc:\u005cwindows\u005cfonts\u005cerasmd.ttf
p756
sg20
g21
sbag1
(g8
g3
NtRp757
(dp758
g11
g12
sg13
VESRI NIMA DNC LN
p759
sg15
I400
sg16
g12
sg17
g12
sg18
VC:\u005cWINDOWS\u005cFonts\u005cesri_13.ttf
p760
sg20
g21
sbag1
(g8
g3
NtRp761
(dp762
g11
g45
sg13
VVerdana
p763
sg15
I400
sg16
g12
sg17
g12
sg18
Vc:\u005cwindows\u005cfonts\u005cverdanai.ttf
p764
sg20
g21
sbag1
(g8
g3
NtRp765
(dp766
g11
g12
sg13
VUniversalMath1 BT
p767
sg15
I400
sg16
g12
sg17
g12
sg18
VC:\u005cWINDOWS\u005cFonts\u005cumath.ttf
p768
sg20
g21
sbag1
(g8
g3
NtRp769
(dp770
g11
g12
sg13
VWebdings
p771
sg15
I400
sg16
g12
sg17
g12
sg18
VC:\u005cWINDOWS\u005cFonts\u005cwebdings.ttf
p772
sg20
g21
sbag1
(g8
g3
NtRp773
(dp774
g11
g12
sg13
VBankGothic Md BT
p775
sg15
I500
sg16
g12
sg17
g12
sg18
Vc:\u005cwindows\u005cfonts\u005cbgothm.ttf
p776
sg20
g21
sbag1
(g8
g3
NtRp777
(dp778
g11
g45
sg13
VFranklin Gothic Demi
p779
sg15
I600
sg16
g12
sg17
g12
sg18
Vc:\u005cwindows\u005cfonts\u005cfradmit.ttf
p780
sg20
g21
sbag1
(g8
g3
NtRp781
(dp782
g11
g12
sg13
VPalatino Linotype
p783
sg15
I400
sg16
g12
sg17
g12
sg18
VC:\u005cWINDOWS\u005cFonts\u005cpala.ttf
p784
sg20
g21
sbag1
(g8
g3
NtRp785
(dp786
g11
g12
sg13
VSwis721 Blk BT
p787
sg15
I900
sg16
g12
sg17
g12
sg18
Vc:\u005cwindows\u005cfonts\u005cswissk.ttf
p788
sg20
g21
sbag1
(g8
g3
NtRp789
(dp790
g11
g12
sg13
VCountryBlueprint
p791
sg15
I400
sg16
g12
sg17
g12
sg18
Vc:\u005cwindows\u005cfonts\u005ccounb___.ttf
p792
sg20
g21
sbag1
(g8
g3
NtRp793
(dp794
g11
g45
sg13
VBodoni MT
p795
sg15
I700
sg16
g191
sg17
g12
sg18
VC:\u005cWINDOWS\u005cFonts\u005cBOD_CBI.TTF
p796
sg20
g21
sbag1
(g8
g3
NtRp797
(dp798
g11
g12
sg13
VGDT
p799
sg15
I400
sg16
g12
sg17
g12
sg18
Vc:\u005cwindows\u005cfonts\u005cgdt_____.ttf
p800
sg20
g21
sbag1
(g8
g3
NtRp801
(dp802
g11
g12
sg13
VSymbol
p803
sg15
I400
sg16
g12
sg17
g12
sg18
Vc:\u005cwindows\u005cfonts\u005csymbol.ttf
p804
sg20
g21
sbag1
(g8
g3
NtRp805
(dp806
g11
g12
sg13
VESRI Default Marker
p807
sg15
I400
sg16
g12
sg17
g12
sg18
VC:\u005cWINDOWS\u005cFonts\u005cesri_11.ttf
p808
sg20
g21
sbag1
(g8
g3
NtRp809
(dp810
g11
g12
sg13
VProxy 4
p811
sg15
I400
sg16
g12
sg17
g12
sg18
VC:\u005cWINDOWS\u005cFonts\u005cmtproxy4.ttf
p812
sg20
g21
sbag1
(g8
g3
NtRp813
(dp814
g11
g12
sg13
VSegoe Print
p815
sg15
I700
sg16
g12
sg17
g12
sg18
VC:\u005cWINDOWS\u005cFonts\u005csegoeprb.ttf
p816
sg20
g21
sbag1
(g8
g3
NtRp817
(dp818
g11
g45
sg13
VLucida Sans
p819
sg15
I400
sg16
g12
sg17
g12
sg18
VC:\u005cWINDOWS\u005cFonts\u005cLSANSI.TTF
p820
sg20
g21
sbag1
(g8
g3
NtRp821
(dp822
g11
g12
sg13
VSylfaen
p823
sg15
I400
sg16
g12
sg17
g12
sg18
Vc:\u005cwindows\u005cfonts\u005csylfaen.ttf
p824
sg20
g21
sbag1
(g8
g3
NtRp825
(dp826
g11
g12
sg13
VSwis721 Lt BT
p827
sg15
I200
sg16
g12
sg17
g12
sg18
Vc:\u005cwindows\u005cfonts\u005cswissl.ttf
p828
sg20
g21
sbag1
(g8
g3
NtRp829
(dp830
g11
g12
sg13
VRockwell Condensed
p831
sg15
I700
sg16
g191
sg17
g12
sg18
Vc:\u005cwindows\u005cfonts\u005croccb___.ttf
p832
sg20
g21
sbag1
(g8
g3
NtRp833
(dp834
g11
g12
sg13
VAgency FB
p835
sg15
I700
sg16
g12
sg17
g12
sg18
VC:\u005cWINDOWS\u005cFonts\u005cAGENCYB.TTF
p836
sg20
g21
sbag1
(g8
g3
NtRp837
(dp838
g11
g12
sg13
VISOCPEUR
p839
sg15
I400
sg16
g12
sg17
g12
sg18
Vc:\u005cwindows\u005cfonts\u005cisocpeur.ttf
p840
sg20
g21
sbag1
(g8
g3
NtRp841
(dp842
g11
g12
sg13
VJavanese Text
p843
sg15
I400
sg16
g12
sg17
g12
sg18
VC:\u005cWINDOWS\u005cFonts\u005cjavatext.ttf
p844
sg20
g21
sbag1
(g8
g3
NtRp845
(dp846
g11
g45
sg13
VGill Sans MT
p847
sg15
I700
sg16
g12
sg17
g12
sg18
VC:\u005cWINDOWS\u005cFonts\u005cGILBI___.TTF
p848
sg20
g21
sbag1
(g8
g3
NtRp849
(dp850
g11
g12
sg13
VAIGDT
p851
sg15
I400
sg16
g12
sg17
g12
sg18
Vc:\u005cwindows\u005cfonts\u005caigdt___.ttf
p852
sg20
g21
sbag1
(g8
g3
NtRp853
(dp854
g11
g12
sg13
VESRI AMFM Electric
p855
sg15
I400
sg16
g12
sg17
g12
sg18
VC:\u005cWINDOWS\u005cFonts\u005cesri_150.ttf
p856
sg20
g21
sbag1
(g8
g3
NtRp857
(dp858
g11
g45
sg13
VCalibri
p859
sg15
I400
sg16
g12
sg17
g12
sg18
VC:\u005cWINDOWS\u005cFonts\u005ccalibrii.ttf
p860
sg20
g21
sbag1
(g8
g3
NtRp861
(dp862
g11
g45
sg13
VLucida Fax
p863
sg15
I400
sg16
g12
sg17
g12
sg18
VC:\u005cWINDOWS\u005cFonts\u005cLFAXI.TTF
p864
sg20
g21
sbag1
(g8
g3
NtRp865
(dp866
g11
g12
sg13
VMT Extra
p867
sg15
I400
sg16
g12
sg17
g12
sg18
Vc:\u005cprogramdata\u005ckingsoft\u005coffice6\u005cmtfont\u005cmtextra.ttf
p868
sg20
g21
sbag1
(g8
g3
NtRp869
(dp870
g11
g12
sg13
VNirmala UI
p871
sg15
I200
sg16
g12
sg17
g12
sg18
Vc:\u005cwindows\u005cfonts\u005cnirmalas.ttf
p872
sg20
g21
sbag1
(g8
g3
NtRp873
(dp874
g11
g45
sg13
VCentury Schoolbook
p875
sg15
I400
sg16
g12
sg17
g12
sg18
Vc:\u005cwindows\u005cfonts\u005cschlbki.ttf
p876
sg20
g21
sbag1
(g8
g3
NtRp877
(dp878
g11
g12
sg13
VMyanmar Text
p879
sg15
I400
sg16
g12
sg17
g12
sg18
VC:\u005cWINDOWS\u005cFonts\u005cmmrtext.ttf
p880
sg20
g21
sbag1
(g8
g3
NtRp881
(dp882
g11
g12
sg13
VMonotxt
p883
sg15
I400
sg16
g12
sg17
g12
sg18
Vc:\u005cwindows\u005cfonts\u005cmonotxt_.ttf
p884
sg20
g21
sbag1
(g8
g3
NtRp885
(dp886
g11
g12
sg13
VNirmala UI
p887
sg15
I400
sg16
g12
sg17
g12
sg18
VC:\u005cWINDOWS\u005cFonts\u005cNirmala.ttf
p888
sg20
g21
sbag1
(g8
g3
NtRp889
(dp890
g11
g12
sg13
VSegoe UI Historic
p891
sg15
I400
sg16
g12
sg17
g12
sg18
VC:\u005cWINDOWS\u005cFonts\u005cseguihis.ttf
p892
sg20
g21
sbag1
(g8
g3
NtRp893
(dp894
g11
g12
sg13
VSnap ITC
p895
sg15
I400
sg16
g12
sg17
g12
sg18
VC:\u005cWINDOWS\u005cFonts\u005cSNAP____.TTF
p896
sg20
g21
sbag1
(g8
g3
NtRp897
(dp898
g11
g12
sg13
VBritannic Bold
p899
sg15
I700
sg16
g12
sg17
g12
sg18
VC:\u005cWINDOWS\u005cFonts\u005cBRITANIC.TTF
p900
sg20
g21
sbag1
(g8
g3
NtRp901
(dp902
g11
g12
sg13
VSegoe UI
p903
sg15
I400
sg16
g12
sg17
g12
sg18
Vc:\u005cwindows\u005cfonts\u005csegoeui.ttf
p904
sg20
g21
sbag1
(g8
g3
NtRp905
(dp906
g11
g12
sg13
VGadugi
p907
sg15
I400
sg16
g12
sg17
g12
sg18
Vc:\u005cwindows\u005cfonts\u005cgadugi.ttf
p908
sg20
g21
sbag1
(g8
g3
NtRp909
(dp910
g11
g12
sg13
VSwis721 LtCn BT
p911
sg15
I200
sg16
g191
sg17
g12
sg18
VC:\u005cWINDOWS\u005cFonts\u005cswisscl.ttf
p912
sg20
g21
sbag1
(g8
g3
NtRp913
(dp914
g11
g12
sg13
VRomantic
p915
sg15
I700
sg16
g12
sg17
g12
sg18
Vc:\u005cwindows\u005cfonts\u005cromab___.ttf
p916
sg20
g21
sbag1
(g8
g3
NtRp917
(dp918
g11
g12
sg13
VESRI Elements
p919
sg15
I400
sg16
g12
sg17
g12
sg18
VC:\u005cWINDOWS\u005cFonts\u005cesri_405.ttf
p920
sg20
g21
sbag1
(g8
g3
NtRp921
(dp922
g11
g12
sg13
VAcadEref
p923
sg15
I400
sg16
g12
sg17
g12
sg18
VC:\u005cWINDOWS\u005cFonts\u005cAcadEref.ttf
p924
sg20
g21
sbag1
(g8
g3
NtRp925
(dp926
g11
g12
sg13
VDubai
p927
sg15
I700
sg16
g12
sg17
g12
sg18
Vc:\u005cwindows\u005cfonts\u005cdubai-bold.ttf
p928
sg20
g21
sbag1
(g8
g3
NtRp929
(dp930
g11
g12
sg13
VESRI Weather
p931
sg15
I400
sg16
g12
sg17
g12
sg18
VC:\u005cWINDOWS\u005cFonts\u005cesri_5.ttf
p932
sg20
g21
sbag1
(g8
g3
NtRp933
(dp934
g11
g12
sg13
VESRI MilSym 02
p935
sg15
I400
sg16
g12
sg17
g12
sg18
Vc:\u005cwindows\u005cfonts\u005cesri_22.ttf
p936
sg20
g21
sbag1
(g8
g3
NtRp937
(dp938
g11
g45
sg13
VGill Sans MT
p939
sg15
I400
sg16
g12
sg17
g12
sg18
VC:\u005cWINDOWS\u005cFonts\u005cGILI____.TTF
p940
sg20
g21
sbag1
(g8
g3
NtRp941
(dp942
g11
g12
sg13
VESRI Geology
p943
sg15
I400
sg16
g12
sg17
g12
sg18
VC:\u005cWINDOWS\u005cFonts\u005cesri_7.ttf
p944
sg20
g21
sbag1
(g8
g3
NtRp945
(dp946
g11
g12
sg13
VMS Reference Specialty
p947
sg15
I400
sg16
g12
sg17
g12
sg18
VC:\u005cWINDOWS\u005cFonts\u005cREFSPCL.TTF
p948
sg20
g21
sbag1
(g8
g3
NtRp949
(dp950
g11
g12
sg13
VESRI MilMod 01
p951
sg15
I400
sg16
g12
sg17
g12
sg18
VC:\u005cWINDOWS\u005cFonts\u005cesri_26.ttf
p952
sg20
g21
sbag1
(g8
g3
NtRp953
(dp954
g11
g12
sg13
VESRI Business
p955
sg15
I400
sg16
g12
sg17
g12
sg18
VC:\u005cWINDOWS\u005cFonts\u005cesri_34.ttf
p956
sg20
g21
sbag1
(g8
g3
NtRp957
(dp958
g11
g45
sg13
VBookman Old Style
p959
sg15
I400
sg16
g12
sg17
g12
sg18
Vc:\u005cwindows\u005cfonts\u005cbookosi.ttf
p960
sg20
g21
sbag1
(g8
g3
NtRp961
(dp962
g11
g12
sg13
VESRI AMFM Water
p963
sg15
I400
sg16
g12
sg17
g12
sg18
VC:\u005cWINDOWS\u005cFonts\u005cesri_153.ttf
p964
sg20
g21
sbag1
(g8
g3
NtRp965
(dp966
g11
g12
sg13
VGloucester MT Extra Condensed
p967
sg15
I400
sg16
g191
sg17
g12
sg18
Vc:\u005cwindows\u005cfonts\u005cglecb.ttf
p968
sg20
g21
sbag1
(g8
g3
NtRp969
(dp970
g11
g12
sg13
VWingdings 2
p971
sg15
I400
sg16
g12
sg17
g12
sg18
VC:\u005cWINDOWS\u005cFonts\u005cWINGDNG2.TTF
p972
sg20
g21
sbag1
(g8
g3
NtRp973
(dp974
g11
g12
sg13
VMicrosoft Tai Le
p975
sg15
I400
sg16
g12
sg17
g12
sg18
Vc:\u005cwindows\u005cfonts\u005ctaile.ttf
p976
sg20
g21
sbag1
(g8
g3
NtRp977
(dp978
g11
g12
sg13
VISOCT3
p979
sg15
I400
sg16
g12
sg17
g12
sg18
Vc:\u005cwindows\u005cfonts\u005cisoct3__.ttf
p980
sg20
g21
sbag1
(g8
g3
NtRp981
(dp982
g11
g12
sg13
VESRI US MUTCD 3
p983
sg15
I400
sg16
g12
sg17
g12
sg18
VC:\u005cWINDOWS\u005cFonts\u005cesri_49.ttf
p984
sg20
g21
sbag1
(g8
g3
NtRp985
(dp986
g11
g12
sg13
VCalibri
p987
sg15
I400
sg16
g12
sg17
g12
sg18
Vc:\u005cwindows\u005cfonts\u005ccalibri.ttf
p988
sg20
g21
sbag1
(g8
g3
NtRp989
(dp990
g11
g12
sg13
VDutch801 Rm BT
p991
sg15
I700
sg16
g12
sg17
g12
sg18
VC:\u005cWINDOWS\u005cFonts\u005cdutchb.ttf
p992
sg20
g21
sbag1
(g8
g3
NtRp993
(dp994
g11
g12
sg13
VETHIOPIC
p995
sg15
I400
sg16
g12
sg17
g12
sg18
VC:\u005cWINDOWS\u005cFonts\u005cETH-1.TTF
p996
sg20
g21
sbag1
(g8
g3
NtRp997
(dp998
g11
g45
sg13
VFranklin Gothic Heavy
p999
sg15
I800
sg16
g12
sg17
g12
sg18
VC:\u005cWINDOWS\u005cFonts\u005cFRAHVIT.TTF
p1000
sg20
g21
sbag1
(g8
g3
NtRp1001
(dp1002
g11
g12
sg13
VCentaur
p1003
sg15
I400
sg16
g12
sg17
g12
sg18
Vc:\u005cwindows\u005cfonts\u005ccentaur.ttf
p1004
sg20
g21
sbag1
(g8
g3
NtRp1005
(dp1006
g11
g12
sg13
VGothicE
p1007
sg15
I400
sg16
g12
sg17
g12
sg18
Vc:\u005cwindows\u005cfonts\u005cgothice_.ttf
p1008
sg20
g21
sbag1
(g8
g3
NtRp1009
(dp1010
g11
g12
sg13
VFrench Script MT
p1011
sg15
I400
sg16
g12
sg17
g12
sg18
VC:\u005cWINDOWS\u005cFonts\u005cFRSCRIPT.TTF
p1012
sg20
g21
sbag1
(g8
g3
NtRp1013
(dp1014
g11
g45
sg13
VCorbel
p1015
sg15
I200
sg16
g12
sg17
g12
sg18
Vc:\u005cwindows\u005cfonts\u005ccorbelli.ttf
p1016
sg20
g21
sbag1
(g8
g3
NtRp1017
(dp1018
g11
g45
sg13
VCambria
p1019
sg15
I400
sg16
g12
sg17
g12
sg18
Vc:\u005cwindows\u005cfonts\u005ccambriai.ttf
p1020
sg20
g21
sbag1
(g8
g3
NtRp1021
(dp1022
g11
g12
sg13
VVG2000 Main
p1023
sg15
I400
sg16
g12
sg17
g12
sg18
Vc:\u005cwindows\u005cfonts\u005cvg2000m.ttf
p1024
sg20
g21
sbag1
(g8
g3
NtRp1025
(dp1026
g11
g12
sg13
VTw Cen MT
p1027
sg15
I400
sg16
g12
sg17
g12
sg18
Vc:\u005cwindows\u005cfonts\u005ctcm_____.ttf
p1028
sg20
g21
sbag1
(g8
g3
NtRp1029
(dp1030
g11
g45
sg13
VSwis721 BT
p1031
sg15
I700
sg16
g12
sg17
g12
sg18
VC:\u005cWINDOWS\u005cFonts\u005cswissbi.ttf
p1032
sg20
g21
sbag1
(g8
g3
NtRp1033
(dp1034
g11
g12
sg13
VBernard MT Condensed
p1035
sg15
I400
sg16
g191
sg17
g12
sg18
Vc:\u005cwindows\u005cfonts\u005cbernhc.ttf
p1036
sg20
g21
sbag1
(g8
g3
NtRp1037
(dp1038
g11
g12
sg13
VProxy 9
p1039
sg15
I400
sg16
g12
sg17
g12
sg18
VC:\u005cWINDOWS\u005cFonts\u005cmtproxy9.ttf
p1040
sg20
g21
sbag1
(g8
g3
NtRp1041
(dp1042
g11
g12
sg13
VAgency FB
p1043
sg15
I400
sg16
g12
sg17
g12
sg18
VC:\u005cWINDOWS\u005cFonts\u005cAGENCYR.TTF
p1044
sg20
g21
sbag1
(g8
g3
NtRp1045
(dp1046
g11
g12
sg13
VCastellar
p1047
sg15
I400
sg16
g12
sg17
g12
sg18
Vc:\u005cwindows\u005cfonts\u005ccastelar.ttf
p1048
sg20
g21
sbag1
(g8
g3
NtRp1049
(dp1050
g11
g12
sg13
VCentury Gothic
p1051
sg15
I700
sg16
g12
sg17
g12
sg18
VC:\u005cWINDOWS\u005cFonts\u005cGOTHICB.TTF
p1052
sg20
g21
sbag1
(g8
g3
NtRp1053
(dp1054
g11
g12
sg13
VRomanT
p1055
sg15
I500
sg16
g12
sg17
g12
sg18
VC:\u005cWINDOWS\u005cFonts\u005cromant__.ttf
p1056
sg20
g21
sbag1
(g8
g3
NtRp1057
(dp1058
g11
g45
sg13
VRage Italic
p1059
sg15
I400
sg16
g12
sg17
g12
sg18
VC:\u005cWINDOWS\u005cFonts\u005cRAGE.TTF
p1060
sg20
g21
sbag1
(g8
g3
NtRp1061
(dp1062
g11
g12
sg13
VProxy 5
p1063
sg15
I400
sg16
g12
sg17
g12
sg18
VC:\u005cWINDOWS\u005cFonts\u005cmtproxy5.ttf
p1064
sg20
g21
sbag1
(g8
g3
NtRp1065
(dp1066
g11
g12
sg13
VMalgun Gothic
p1067
sg15
I200
sg16
g12
sg17
g12
sg18
Vc:\u005cwindows\u005cfonts\u005cmalgunsl.ttf
p1068
sg20
g21
sbag1
(g8
g3
NtRp1069
(dp1070
g11
g12
sg13
VFranklin Gothic Medium
p1071
sg15
I500
sg16
g12
sg17
g12
sg18
VC:\u005cWINDOWS\u005cFonts\u005cframd.ttf
p1072
sg20
g21
sbag1
(g8
g3
NtRp1073
(dp1074
g11
g12
sg13
VISOCT
p1075
sg15
I400
sg16
g12
sg17
g12
sg18
Vc:\u005cwindows\u005cfonts\u005cisoct___.ttf
p1076
sg20
g21
sbag1
(g8
g3
NtRp1077
(dp1078
g11
g45
sg13
VCambria
p1079
sg15
I700
sg16
g12
sg17
g12
sg18
VC:\u005cWINDOWS\u005cFonts\u005ccambriaz.ttf
p1080
sg20
g21
sbag1
(g8
g3
NtRp1081
(dp1082
g11
g12
sg13
VESRI AMFM Sewer
p1083
sg15
I400
sg16
g12
sg17
g12
sg18
Vc:\u005cwindows\u005cfonts\u005cesri_152.ttf
p1084
sg20
g21
sbag1
(g8
g3
NtRp1085
(dp1086
g11
g12
sg13
VArial Unicode MS
p1087
sg15
I400
sg16
g12
sg17
g12
sg18
Vc:\u005cwindows\u005cfonts\u005carialuni.ttf
p1088
sg20
g21
sbag1
(g8
g3
NtRp1089
(dp1090
g11
g12
sg13
VEbrima
p1091
sg15
I700
sg16
g12
sg17
g12
sg18
Vc:\u005cwindows\u005cfonts\u005cebrimabd.ttf
p1092
sg20
g21
sbag1
(g8
g3
NtRp1093
(dp1094
g11
g12
sg13
VVG2 Title
p1095
sg15
I400
sg16
g12
sg17
g12
sg18
VC:\u005cWINDOWS\u005cFonts\u005cvg2title.TTF
p1096
sg20
g21
sbag1
(g8
g3
NtRp1097
(dp1098
g11
g12
sg13
VSwis721 Ex BT
p1099
sg15
I400
sg16
g12
sg17
g12
sg18
Vc:\u005cwindows\u005cfonts\u005cswisse.ttf
p1100
sg20
g21
sbag1
(g8
g3
NtRp1101
(dp1102
g11
g12
sg13
VCorbel
p1103
sg15
I400
sg16
g12
sg17
g12
sg18
VC:\u005cWINDOWS\u005cFonts\u005ccorbel.ttf
p1104
sg20
g21
sbag1
(g8
g3
NtRp1105
(dp1106
g11
g12
sg13
VGloucester MT Extra Condensed
p1107
sg15
I400
sg16
g191
sg17
g12
sg18
VC:\u005cWINDOWS\u005cFonts\u005cGLECB.TTF
p1108
sg20
g21
sbag1
(g8
g3
NtRp1109
(dp1110
g11
g12
sg13
VVisual Geez Unicode
p1111
sg15
I400
sg16
g12
sg17
g12
sg18
Vc:\u005cwindows\u005cfonts\u005cvgunicode.ttf
p1112
sg20
g21
sbag1
(g8
g3
NtRp1113
(dp1114
g11
g45
sg13
VConsolas
p1115
sg15
I700
sg16
g12
sg17
g12
sg18
VC:\u005cWINDOWS\u005cFonts\u005cconsolaz.ttf
p1116
sg20
g21
sbag1
(g8
g3
NtRp1117
(dp1118
g11
g12
sg13
VCalibri
p1119
sg15
I700
sg16
g12
sg17
g12
sg18
VC:\u005cWINDOWS\u005cFonts\u005ccalibrib.ttf
p1120
sg20
g21
sbag1
(g8
g3
NtRp1121
(dp1122
g11
g12
sg13
VColonna MT
p1123
sg15
I400
sg16
g12
sg17
g12
sg18
VC:\u005cWINDOWS\u005cFonts\u005cCOLONNA.TTF
p1124
sg20
g21
sbag1
(g8
g3
NtRp1125
(dp1126
g11
g45
sg13
VPerpetua
p1127
sg15
I400
sg16
g12
sg17
g12
sg18
Vc:\u005cwindows\u005cfonts\u005cperi____.ttf
p1128
sg20
g21
sbag1
(g8
g3
NtRp1129
(dp1130
g11
g12
sg13
VRockwell
p1131
sg15
I400
sg16
g12
sg17
g12
sg18
VC:\u005cWINDOWS\u005cFonts\u005cROCK.TTF
p1132
sg20
g21
sbag1
(g8
g3
NtRp1133
(dp1134
g11
g12
sg13
VCopperplate Gothic Light
p1135
sg15
I200
sg16
g12
sg17
g12
sg18
Vc:\u005cwindows\u005cfonts\u005ccoprgtl.ttf
p1136
sg20
g21
sbag1
(g8
g3
NtRp1137
(dp1138
g11
g45
sg13
VTw Cen MT
p1139
sg15
I400
sg16
g12
sg17
g12
sg18
Vc:\u005cwindows\u005cfonts\u005ctcmi____.ttf
p1140
sg20
g21
sbag1
(g8
g3
NtRp1141
(dp1142
g11
g45
sg13
VCandara
p1143
sg15
I200
sg16
g12
sg17
g12
sg18
VC:\u005cWINDOWS\u005cFonts\u005cCandarali.ttf
p1144
sg20
g21
sbag1
(g8
g3
NtRp1145
(dp1146
g11
g12
sg13
VViner Hand ITC
p1147
sg15
I400
sg16
g12
sg17
g12
sg18
VC:\u005cWINDOWS\u005cFonts\u005cVINERITC.TTF
p1148
sg20
g21
sbag1
(g8
g3
NtRp1149
(dp1150
g11
g12
sg13
VForte
p1151
sg15
I400
sg16
g12
sg17
g12
sg18
VC:\u005cWINDOWS\u005cFonts\u005cFORTE.TTF
p1152
sg20
g21
sbag1
(g8
g3
NtRp1153
(dp1154
g11
g12
sg13
VSegoe Print
p1155
sg15
I400
sg16
g12
sg17
g12
sg18
Vc:\u005cwindows\u005cfonts\u005csegoepr.ttf
p1156
sg20
g21
sbag1
(g8
g3
NtRp1157
(dp1158
g11
g12
sg13
VTimes New Roman
p1159
sg15
I500
sg16
g12
sg17
g12
sg18
Vc:\u005cwindows\u005cfonts\u005ctimes.ttf
p1160
sg20
g21
sbag1
(g8
g3
NtRp1161
(dp1162
g11
g12
sg13
VESRI MilSym 01
p1163
sg15
I400
sg16
g12
sg17
g12
sg18
Vc:\u005cwindows\u005cfonts\u005cesri_21.ttf
p1164
sg20
g21
sbag1
(g8
g3
NtRp1165
(dp1166
g11
g12
sg13
VConsolas
p1167
sg15
I700
sg16
g12
sg17
g12
sg18
Vc:\u005cwindows\u005cfonts\u005cconsolab.ttf
p1168
sg20
g21
sbag1
(g8
g3
NtRp1169
(dp1170
g11
g12
sg13
VETHIOPIC
p1171
sg15
I700
sg16
g12
sg17
g12
sg18
VC:\u005cWINDOWS\u005cFonts\u005cETH-2.TTF
p1172
sg20
g21
sbag1
(g8
g3
NtRp1173
(dp1174
g11
g45
sg13
VSwis721 LtCn BT
p1175
sg15
I200
sg16
g191
sg17
g12
sg18
VC:\u005cWINDOWS\u005cFonts\u005cswisscli.ttf
p1176
sg20
g21
sbag1
(g8
g3
NtRp1177
(dp1178
g11
g12
sg13
VMicrosoft Uighur
p1179
sg15
I400
sg16
g12
sg17
g12
sg18
VC:\u005cWINDOWS\u005cFonts\u005cMSUIGHUR.TTF
p1180
sg20
g21
sbag1
(g8
g3
NtRp1181
(dp1182
g11
g12
sg13
VESRI NIMA City Graphic LN
p1183
sg15
I400
sg16
g12
sg17
g12
sg18
VC:\u005cWINDOWS\u005cFonts\u005cesri_17.ttf
p1184
sg20
g21
sbag1
(g8
g3
NtRp1185
(dp1186
g11
g12
sg13
VGeezNewB
p1187
sg15
I400
sg16
g12
sg17
g12
sg18
Vc:\u005cwindows\u005cfonts\u005cgeeznbrg.ttf
p1188
sg20
g21
sbag1
(g8
g3
NtRp1189
(dp1190
g11
g45
sg13
VCourier New
p1191
sg15
I400
sg16
g12
sg17
g12
sg18
Vc:\u005cwindows\u005cfonts\u005ccouri.ttf
p1192
sg20
g21
sbag1
(g8
g3
NtRp1193
(dp1194
g11
g12
sg13
VAGF - Zemen
p1195
sg15
I400
sg16
g12
sg17
g12
sg18
Vc:\u005cwindows\u005cfonts\u005cagafari_zemen.ttf
p1196
sg20
g21
sbag1
(g8
g3
NtRp1197
(dp1198
g11
g12
sg13
VBerlin Sans FB Demi
p1199
sg15
I700
sg16
g12
sg17
g12
sg18
VC:\u005cWINDOWS\u005cFonts\u005cBRLNSDB.TTF
p1200
sg20
g21
sbag1
(g8
g3
NtRp1201
(dp1202
g11
g12
sg13
VLeelawadee
p1203
sg15
I400
sg16
g12
sg17
g12
sg18
Vc:\u005cwindows\u005cfonts\u005cleelawad.ttf
p1204
sg20
g21
sbag1
(g8
g3
NtRp1205
(dp1206
g11
g12
sg13
VAmdtSymbols
p1207
sg15
I400
sg16
g12
sg17
g12
sg18
Vc:\u005cwindows\u005cfonts\u005camdt_symbols.ttf
p1208
sg20
g21
sbag1
(g8
g3
NtRp1209
(dp1210
g11
g12
sg13
VArial
p1211
sg15
I400
sg16
g12
sg17
g12
sg18
Vc:\u005cwindows\u005cfonts\u005carial.ttf
p1212
sg20
g21
sbag1
(g8
g3
NtRp1213
(dp1214
g11
g45
sg13
VBodoni MT
p1215
sg15
I400
sg16
g12
sg17
g12
sg18
Vc:\u005cwindows\u005cfonts\u005cbod_i.ttf
p1216
sg20
g21
sbag1
(g8
g3
NtRp1217
(dp1218
g11
g12
sg13
VBodoni MT
p1219
sg15
I400
sg16
g12
sg17
g12
sg18
VC:\u005cWINDOWS\u005cFonts\u005cBOD_PSTC.TTF
p1220
sg20
g21
sbag1
(g8
g3
NtRp1221
(dp1222
g11
g12
sg13
VPower Geez Unicode2
p1223
sg15
I400
sg16
g12
sg17
g12
sg18
VC:\u005cWINDOWS\u005cFonts\u005cPGUNICODE2.TTF
p1224
sg20
g21
sbag1
(g8
g3
NtRp1225
(dp1226
g11
g12
sg13
VESRI ERS Operations S1
p1227
sg15
I400
sg16
g12
sg17
g12
sg18
Vc:\u005cwindows\u005cfonts\u005cesri_837.ttf
p1228
sg20
g21
sbag1
(g8
g3
NtRp1229
(dp1230
g11
g12
sg13
VEngravers MT
p1231
sg15
I400
sg16
g12
sg17
g12
sg18
Vc:\u005cwindows\u005cfonts\u005cengr.ttf
p1232
sg20
g21
sbag1
(g8
g3
NtRp1233
(dp1234
g11
g12
sg13
VET-SAMI2000
p1235
sg15
I400
sg16
g12
sg17
g12
sg18
VC:\u005cWINDOWS\u005cFonts\u005cetsami2.ttf
p1236
sg20
g21
sbag1
(g8
g3
NtRp1237
(dp1238
g11
g12
sg13
VLucida Sans Unicode
p1239
sg15
I400
sg16
g12
sg17
g12
sg18
Vc:\u005cwindows\u005cfonts\u005cl_10646.ttf
p1240
sg20
g21
sbag1
(g8
g3
NtRp1241
(dp1242
g11
g45
sg13
VRockwell
p1243
sg15
I400
sg16
g12
sg17
g12
sg18
VC:\u005cWINDOWS\u005cFonts\u005cROCKI.TTF
p1244
sg20
g21
sbag1
(g8
g3
NtRp1245
(dp1246
g11
g12
sg13
VLucida Fax
p1247
sg15
I400
sg16
g12
sg17
g12
sg18
VC:\u005cWINDOWS\u005cFonts\u005cLFAX.TTF
p1248
sg20
g21
sbag1
(g8
g3
NtRp1249
(dp1250
g11
g45
sg13
VMonospac821 BT
p1251
sg15
I700
sg16
g12
sg17
g12
sg18
VC:\u005cWINDOWS\u005cFonts\u005cmonosbi.ttf
p1252
sg20
g21
sbag1
(g8
g3
NtRp1253
(dp1254
g11
g12
sg13
VET-Saba
p1255
sg15
I400
sg16
g12
sg17
g12
sg18
Vc:\u005cwindows\u005cfonts\u005cetsaba.ttf
p1256
sg20
g21
sbag1
(g8
g3
NtRp1257
(dp1258
g11
g12
sg13
VGENISO
p1259
sg15
I400
sg16
g12
sg17
g12
sg18
VC:\u005cWINDOWS\u005cFonts\u005cGENISO.ttf
p1260
sg20
g21
sbag1
(g8
g3
NtRp1261
(dp1262
g11
g12
sg13
VGeorgia
p1263
sg15
I400
sg16
g12
sg17
g12
sg18
Vc:\u005cwindows\u005cfonts\u005cgeorgia.ttf
p1264
sg20
g21
sbag1
(g8
g3
NtRp1265
(dp1266
g11
g12
sg13
VMS Reference Sans Serif
p1267
sg15
I400
sg16
g12
sg17
g12
sg18
Vc:\u005cwindows\u005cfonts\u005crefsan.ttf
p1268
sg20
g21
sbag1
(g8
g3
NtRp1269
(dp1270
g11
g12
sg13
VBookman Old Style
p1271
sg15
I700
sg16
g12
sg17
g12
sg18
Vc:\u005cwindows\u005cfonts\u005cbookosb.ttf
p1272
sg20
g21
sbag1
(g8
g3
NtRp1273
(dp1274
g11
g45
sg13
VCalisto MT
p1275
sg15
I700
sg16
g12
sg17
g12
sg18
VC:\u005cWINDOWS\u005cFonts\u005cCALISTBI.TTF
p1276
sg20
g21
sbag1
(g8
g3
NtRp1277
(dp1278
g11
g45
sg13
VCalibri
p1279
sg15
I200
sg16
g12
sg17
g12
sg18
VC:\u005cWINDOWS\u005cFonts\u005ccalibrili.ttf
p1280
sg20
g21
sbag1
(g8
g3
NtRp1281
(dp1282
g11
g12
sg13
VFelix Titling
p1283
sg15
I400
sg16
g12
sg17
g12
sg18
Vc:\u005cwindows\u005cfonts\u005cfelixti.ttf
p1284
sg20
g21
sbag1
(g8
g3
NtRp1285
(dp1286
g11
g12
sg13
VInk Free
p1287
sg15
I400
sg16
g12
sg17
g12
sg18
Vc:\u005cwindows\u005cfonts\u005cinkfree.ttf
p1288
sg20
g21
sbag1
(g8
g3
NtRp1289
(dp1290
g11
g12
sg13
VESRI Dimensioning
p1291
sg15
I400
sg16
g12
sg17
g12
sg18
Vc:\u005cwindows\u005cfonts\u005cesri_39.ttf
p1292
sg20
g21
sbag1
(g8
g3
NtRp1293
(dp1294
g11
g45
sg13
VPalatino Linotype
p1295
sg15
I400
sg16
g12
sg17
g12
sg18
Vc:\u005cwindows\u005cfonts\u005cpalai.ttf
p1296
sg20
g21
sbag1
(g8
g3
NtRp1297
(dp1298
g11
g45
sg13
VFranklin Gothic Heavy
p1299
sg15
I800
sg16
g12
sg17
g12
sg18
Vc:\u005cwindows\u005cfonts\u005cfrahvit.ttf
p1300
sg20
g21
sbag1
(g8
g3
NtRp1301
(dp1302
g11
g12
sg13
VVineta BT
p1303
sg15
I400
sg16
g12
sg17
g12
sg18
VC:\u005cWINDOWS\u005cFonts\u005cvinet.ttf
p1304
sg20
g21
sbag1
(g8
g3
NtRp1305
(dp1306
g11
g45
sg13
VBookman Old Style
p1307
sg15
I700
sg16
g12
sg17
g12
sg18
Vc:\u005cwindows\u005cfonts\u005cbookosbi.ttf
p1308
sg20
g21
sbag1
(g8
g3
NtRp1309
(dp1310
g11
g12
sg13
VLucida Fax
p1311
sg15
I700
sg16
g12
sg17
g12
sg18
VC:\u005cWINDOWS\u005cFonts\u005cLFAXD.TTF
p1312
sg20
g21
sbag1
(g8
g3
NtRp1313
(dp1314
g11
g12
sg13
VGeezNewA
p1315
sg15
I400
sg16
g12
sg17
g12
sg18
VC:\u005cWINDOWS\u005cFonts\u005cGEEZNARG.TTF
p1316
sg20
g21
sbag1
(g8
g3
NtRp1317
(dp1318
g11
g45
sg13
VDutch801 Rm BT
p1319
sg15
I400
sg16
g12
sg17
g12
sg18
Vc:\u005cwindows\u005cfonts\u005cdutchi.ttf
p1320
sg20
g21
sbag1
(g8
g3
NtRp1321
(dp1322
g11
g12
sg13
VFranklin Gothic Medium Cond
p1323
sg15
I500
sg16
g191
sg17
g12
sg18
VC:\u005cWINDOWS\u005cFonts\u005cFRAMDCN.TTF
p1324
sg20
g21
sbag1
(g8
g3
NtRp1325
(dp1326
g11
g12
sg13
VET-NEBAR
p1327
sg15
I400
sg16
g12
sg17
g12
sg18
VC:\u005cWINDOWS\u005cFonts\u005cETNEBARN.TTF
p1328
sg20
g21
sbag1
(g8
g3
NtRp1329
(dp1330
g11
g12
sg13
VPower Geez Unicode2
p1331
sg15
I400
sg16
g12
sg17
g12
sg18
Vc:\u005cwindows\u005cfonts\u005cpgunicode2.ttf
p1332
sg20
g21
sbag1
(g8
g3
NtRp1333
(dp1334
g11
g12
sg13
VALXethiopian
p1335
sg15
I400
sg16
g12
sg17
g12
sg18
Vc:\u005cwindows\u005cfonts\u005calxethio.ttf
p1336
sg20
g21
sbag1
(g8
g3
NtRp1337
(dp1338
g11
g45
sg13
VLucida Handwriting
p1339
sg15
I400
sg16
g12
sg17
g12
sg18
VC:\u005cWINDOWS\u005cFonts\u005cLHANDW.TTF
p1340
sg20
g21
sbag1
(g8
g3
NtRp1341
(dp1342
g11
g12
sg13
VBodoni MT
p1343
sg15
I700
sg16
g12
sg17
g12
sg18
Vc:\u005cwindows\u005cfonts\u005cbod_b.ttf
p1344
sg20
g21
sbag1
(g8
g3
NtRp1345
(dp1346
g11
g45
sg13
VET-SAMI
p1347
sg15
I700
sg16
g12
sg17
g12
sg18
Vc:\u005cwindows\u005cfonts\u005cetsamibi.ttf
p1348
sg20
g21
sbag1
(g8
g3
NtRp1349
(dp1350
g11
g12
sg13
VMS Mincho
p1351
sg15
I400
sg16
g12
sg17
g12
sg18
Vc:\u005cwindows\u005cfonts\u005cmsmincho.ttf
p1352
sg20
g21
sbag1
(g8
g3
NtRp1353
(dp1354
g11
g12
sg13
VCentury Schoolbook
p1355
sg15
I700
sg16
g12
sg17
g12
sg18
Vc:\u005cwindows\u005cfonts\u005cschlbkb.ttf
p1356
sg20
g21
sbag1
(g8
g3
NtRp1357
(dp1358
g11
g12
sg13
VESRI MilSym 04
p1359
sg15
I400
sg16
g12
sg17
g12
sg18
VC:\u005cWINDOWS\u005cFonts\u005cesri_24.ttf
p1360
sg20
g21
sbag1
(g8
g3
NtRp1361
(dp1362
g11
g12
sg13
VArial
p1363
sg15
I700
sg16
g191
sg17
g12
sg18
VC:\u005cWINDOWS\u005cFonts\u005cARIALNB.TTF
p1364
sg20
g21
sbag1
(g8
g3
NtRp1365
(dp1366
g11
g12
sg13
VChiller
p1367
sg15
I400
sg16
g12
sg17
g12
sg18
Vc:\u005cwindows\u005cfonts\u005cchiller.ttf
p1368
sg20
g21
sbag1
(g8
g3
NtRp1369
(dp1370
g11
g12
sg13
VConstantia
p1371
sg15
I400
sg16
g12
sg17
g12
sg18
Vc:\u005cwindows\u005cfonts\u005cconstan.ttf
p1372
sg20
g21
sbag1
(g8
g3
NtRp1373
(dp1374
g11
g12
sg13
VGe'ez-2
p1375
sg15
I400
sg16
g12
sg17
g12
sg18
Vc:\u005cwindows\u005cfonts\u005cgeez2.ttf
p1376
sg20
g21
sbag1
(g8
g3
NtRp1377
(dp1378
g11
g12
sg13
VKunstler Script
p1379
sg15
I400
sg16
g12
sg17
g12
sg18
VC:\u005cWINDOWS\u005cFonts\u005cKUNSTLER.TTF
p1380
sg20
g21
sbag1
(g8
g3
NtRp1381
(dp1382
g11
g12
sg13
VMalgun Gothic
p1383
sg15
I700
sg16
g12
sg17
g12
sg18
VC:\u005cWINDOWS\u005cFonts\u005cmalgunbd.ttf
p1384
sg20
g21
sbag1
(g8
g3
NtRp1385
(dp1386
g11
g12
sg13
VTrebuchet MS
p1387
sg15
I400
sg16
g12
sg17
g12
sg18
Vc:\u005cwindows\u005cfonts\u005ctrebuc.ttf
p1388
sg20
g21
sbag1
(g8
g3
NtRp1389
(dp1390
g11
g12
sg13
VESRI Hydrants
p1391
sg15
I400
sg16
g12
sg17
g12
sg18
Vc:\u005cwindows\u005cfonts\u005cesri_159.ttf
p1392
sg20
g21
sbag1
(g8
g3
NtRp1393
(dp1394
g11
g12
sg13
VGill Sans MT
p1395
sg15
I400
sg16
g12
sg17
g12
sg18
Vc:\u005cwindows\u005cfonts\u005cgil_____.ttf
p1396
sg20
g21
sbag1
(g8
g3
NtRp1397
(dp1398
g11
g45
sg13
VRomantic
p1399
sg15
I500
sg16
g12
sg17
g12
sg18
VC:\u005cWINDOWS\u005cFonts\u005cromai___.ttf
p1400
sg20
g21
sbag1
(g8
g3
NtRp1401
(dp1402
g11
g12
sg13
VMonospac821 BT
p1403
sg15
I700
sg16
g12
sg17
g12
sg18
Vc:\u005cwindows\u005cfonts\u005cmonosb.ttf
p1404
sg20
g21
sbag1
(g8
g3
NtRp1405
(dp1406
g11
g12
sg13
VESRI North
p1407
sg15
I400
sg16
g12
sg17
g12
sg18
VC:\u005cWINDOWS\u005cFonts\u005cesri_40.ttf
p1408
sg20
g21
sbag1
(g8
g3
NtRp1409
(dp1410
g11
g12
sg13
VRockwell
p1411
sg15
I700
sg16
g12
sg17
g12
sg18
Vc:\u005cwindows\u005cfonts\u005crockb.ttf
p1412
sg20
g21
sbag1
(g8
g3
NtRp1413
(dp1414
g11
g12
sg13
VESRI Shields
p1415
sg15
I400
sg16
g12
sg17
g12
sg18
Vc:\u005cwindows\u005cfonts\u005cesri_44.ttf
p1416
sg20
g21
sbag1
(g8
g3
NtRp1417
(dp1418
g11
g45
sg13
VCentury Gothic
p1419
sg15
I700
sg16
g12
sg17
g12
sg18
VC:\u005cWINDOWS\u005cFonts\u005cGOTHICBI.TTF
p1420
sg20
g21
sbag1
(g8
g3
NtRp1421
(dp1422
g11
g12
sg13
VCourier New
p1423
sg15
I400
sg16
g12
sg17
g12
sg18
Vc:\u005cwindows\u005cfonts\u005ccour.ttf
p1424
sg20
g21
sbag1
(g8
g3
NtRp1425
(dp1426
g11
g12
sg13
VET-NEBAR
p1427
sg15
I400
sg16
g12
sg17
g12
sg18
Vc:\u005cwindows\u005cfonts\u005cetnebarn.ttf
p1428
sg20
g21
sbag1
(g8
g3
NtRp1429
(dp1430
g11
g45
sg13
VCorbel
p1431
sg15
I700
sg16
g12
sg17
g12
sg18
VC:\u005cWINDOWS\u005cFonts\u005ccorbelz.ttf
p1432
sg20
g21
sbag1
(g8
g3
NtRp1433
(dp1434
g11
g12
sg13
VCalifornian FB
p1435
sg15
I400
sg16
g12
sg17
g12
sg18
Vc:\u005cwindows\u005cfonts\u005ccalifr.ttf
p1436
sg20
g21
sbag1
(g8
g3
NtRp1437
(dp1438
g11
g12
sg13
VLeelawadee UI
p1439
sg15
I700
sg16
g12
sg17
g12
sg18
VC:\u005cWINDOWS\u005cFonts\u005cLeelaUIb.ttf
p1440
sg20
g21
sbag1
(g8
g3
NtRp1441
(dp1442
g11
g12
sg13
VPower Geez Unicode3
p1443
sg15
I400
sg16
g12
sg17
g12
sg18
VC:\u005cWINDOWS\u005cFonts\u005cPGUNICODE3.TTF
p1444
sg20
g21
sbag1
(g8
g3
NtRp1445
(dp1446
g11
g45
sg13
VISOCTEUR
p1447
sg15
I400
sg16
g12
sg17
g12
sg18
VC:\u005cWINDOWS\u005cFonts\u005cisocteui.ttf
p1448
sg20
g21
sbag1
(g8
g3
NtRp1449
(dp1450
g11
g12
sg13
VCentury Schoolbook
p1451
sg15
I400
sg16
g12
sg17
g12
sg18
Vc:\u005cwindows\u005cfonts\u005ccenscbk.ttf
p1452
sg20
g21
sbag1
(g8
g3
NtRp1453
(dp1454
g11
g12
sg13
VESRI Environmental & Icons
p1455
sg15
I400
sg16
g12
sg17
g12
sg18
Vc:\u005cwindows\u005cfonts\u005cesri_2.ttf
p1456
sg20
g21
sbag1
(g8
g3
NtRp1457
(dp1458
g11
g12
sg13
VVG2 Main
p1459
sg15
I400
sg16
g12
sg17
g12
sg18
Vc:\u005cwindows\u005cfonts\u005cvg2main.ttf
p1460
sg20
g21
sbag1
(g8
g3
NtRp1461
(dp1462
g11
g45
sg13
VRockwell
p1463
sg15
I700
sg16
g12
sg17
g12
sg18
VC:\u005cWINDOWS\u005cFonts\u005cROCKBI.TTF
p1464
sg20
g21
sbag1
(g8
g3
NtRp1465
(dp1466
g11
g12
sg13
VCandara
p1467
sg15
I200
sg16
g12
sg17
g12
sg18
Vc:\u005cwindows\u005cfonts\u005ccandaral.ttf
p1468
sg20
g21
sbag1
(g8
g3
NtRp1469
(dp1470
g11
g45
sg13
VLucida Bright
p1471
sg15
I400
sg16
g12
sg17
g12
sg18
VC:\u005cWINDOWS\u005cFonts\u005cLBRITEI.TTF
p1472
sg20
g21
sbag1
(g8
g3
NtRp1473
(dp1474
g11
g12
sg13
VSwis721 LtEx BT
p1475
sg15
I200
sg16
g12
sg17
g12
sg18
Vc:\u005cwindows\u005cfonts\u005cswissel.ttf
p1476
sg20
g21
sbag1
(g8
g3
NtRp1477
(dp1478
g11
g12
sg13
VEras Demi ITC
p1479
sg15
I600
sg16
g12
sg17
g12
sg18
VC:\u005cWINDOWS\u005cFonts\u005cERASDEMI.TTF
p1480
sg20
g21
sbag1
(g8
g3
NtRp1481
(dp1482
g11
g45
sg13
VTw Cen MT
p1483
sg15
I700
sg16
g12
sg17
g12
sg18
Vc:\u005cwindows\u005cfonts\u005ctcbi____.ttf
p1484
sg20
g21
sbag1
(g8
g3
NtRp1485
(dp1486
g11
g12
sg13
VVerdana
p1487
sg15
I700
sg16
g12
sg17
g12
sg18
Vc:\u005cwindows\u005cfonts\u005cverdanab.ttf
p1488
sg20
g21
sbag1
(g8
g3
NtRp1489
(dp1490
g11
g45
sg13
VCourier New
p1491
sg15
I700
sg16
g12
sg17
g12
sg18
Vc:\u005cwindows\u005cfonts\u005ccourbi.ttf
p1492
sg20
g21
sbag1
(g8
g3
NtRp1493
(dp1494
g11
g12
sg13
VESRI MilSym 03
p1495
sg15
I400
sg16
g12
sg17
g12
sg18
VC:\u005cWINDOWS\u005cFonts\u005cesri_23.ttf
p1496
sg20
g21
sbag1
(g8
g3
NtRp1497
(dp1498
g11
g12
sg13
VMicrosoft PhagsPa
p1499
sg15
I400
sg16
g12
sg17
g12
sg18
Vc:\u005cwindows\u005cfonts\u005cphagspa.ttf
p1500
sg20
g21
sbag1
(g8
g3
NtRp1501
(dp1502
g11
g12
sg13
VSwis721 BlkOul BT
p1503
sg15
I900
sg16
g12
sg17
g12
sg18
Vc:\u005cwindows\u005cfonts\u005cswissko.ttf
p1504
sg20
g21
sbag1
(g8
g3
NtRp1505
(dp1506
g11
g12
sg13
VWingdings 3
p1507
sg15
I400
sg16
g12
sg17
g12
sg18
Vc:\u005cwindows\u005cfonts\u005cwingdng3.ttf
p1508
sg20
g21
sbag1
(g8
g3
NtRp1509
(dp1510
g11
g45
sg13
VDutch801 Rm BT
p1511
sg15
I700
sg16
g12
sg17
g12
sg18
Vc:\u005cwindows\u005cfonts\u005cdutchbi.ttf
p1512
sg20
g21
sbag1
(g8
g3
NtRp1513
(dp1514
g11
g12
sg13
VGill Sans MT Ext Condensed Bold
p1515
sg15
I700
sg16
g191
sg17
g12
sg18
VC:\u005cWINDOWS\u005cFonts\u005cGLSNECB.TTF
p1516
sg20
g21
sbag1
(g8
g3
NtRp1517
(dp1518
g11
g12
sg13
VRomantic
p1519
sg15
I500
sg16
g12
sg17
g12
sg18
Vc:\u005cwindows\u005cfonts\u005cromantic.ttf
p1520
sg20
g21
sbag1
(g8
g3
NtRp1521
(dp1522
g11
g12
sg13
VISOCTEUR
p1523
sg15
I400
sg16
g12
sg17
g12
sg18
VC:\u005cWINDOWS\u005cFonts\u005cisocteur.ttf
p1524
sg20
g21
sbag1
(g8
g3
NtRp1525
(dp1526
g11
g12
sg13
VCalisto MT
p1527
sg15
I700
sg16
g12
sg17
g12
sg18
Vc:\u005cwindows\u005cfonts\u005ccalistb.ttf
p1528
sg20
g21
sbag1
(g8
g3
NtRp1529
(dp1530
g11
g12
sg13
VModern No. 20
p1531
sg15
I400
sg16
g12
sg17
g12
sg18
VC:\u005cWINDOWS\u005cFonts\u005cMOD20.TTF
p1532
sg20
g21
sbag1
(g8
g3
NtRp1533
(dp1534
g11
g12
sg13
VSimSun-ExtB
p1535
sg15
I400
sg16
g12
sg17
g12
sg18
VC:\u005cWINDOWS\u005cFonts\u005csimsunb.ttf
p1536
sg20
g21
sbag1
(g8
g3
NtRp1537
(dp1538
g11
g12
sg13
VCopperplate Gothic Bold
p1539
sg15
I700
sg16
g12
sg17
g12
sg18
Vc:\u005cwindows\u005cfonts\u005ccoprgtb.ttf
p1540
sg20
g21
sbag1
(g8
g3
NtRp1541
(dp1542
g11
g45
sg13
VBrush Script MT
p1543
sg15
I400
sg16
g12
sg17
g12
sg18
VC:\u005cWINDOWS\u005cFonts\u005cBRUSHSCI.TTF
p1544
sg20
g21
sbag1
(g8
g3
NtRp1545
(dp1546
g11
g45
sg13
VCalisto MT
p1547
sg15
I400
sg16
g12
sg17
g12
sg18
Vc:\u005cwindows\u005cfonts\u005ccalisti.ttf
p1548
sg20
g21
sbag1
(g8
g3
NtRp1549
(dp1550
g11
g12
sg13
VBankGothic Lt BT
p1551
sg15
I200
sg16
g12
sg17
g12
sg18
VC:\u005cWINDOWS\u005cFonts\u005cbgothl.ttf
p1552
sg20
g21
sbag1
(g8
g3
NtRp1553
(dp1554
g11
g12
sg13
VProxy 2
p1555
sg15
I400
sg16
g12
sg17
g12
sg18
Vc:\u005cwindows\u005cfonts\u005cmtproxy2.ttf
p1556
sg20
g21
sbag1
(g8
g3
NtRp1557
(dp1558
g11
g12
sg13
VViner Hand ITC
p1559
sg15
I400
sg16
g12
sg17
g12
sg18
Vc:\u005cwindows\u005cfonts\u005cvineritc.ttf
p1560
sg20
g21
sbag1
(g8
g3
NtRp1561
(dp1562
g11
g12
sg13
VJokerman
p1563
sg15
I400
sg16
g12
sg17
g12
sg18
Vc:\u005cwindows\u005cfonts\u005cjokerman.ttf
p1564
sg20
g21
sbag1
(g8
g3
NtRp1565
(dp1566
g11
g12
sg13
VCalibri
p1567
sg15
I200
sg16
g12
sg17
g12
sg18
VC:\u005cWINDOWS\u005cFonts\u005ccalibril.ttf
p1568
sg20
g21
sbag1
(g8
g3
NtRp1569
(dp1570
g11
g45
sg13
VSegoe UI
p1571
sg15
I400
sg16
g12
sg17
g12
sg18
VC:\u005cWINDOWS\u005cFonts\u005cseguisli.ttf
p1572
sg20
g21
sbag1
(g8
g3
NtRp1573
(dp1574
g11
g12
sg13
VLucida Bright
p1575
sg15
I700
sg16
g12
sg17
g12
sg18
VC:\u005cWINDOWS\u005cFonts\u005cLBRITED.TTF
p1576
sg20
g21
sbag1
(g8
g3
NtRp1577
(dp1578
g11
g12
sg13
VMicrosoft New Tai Lue
p1579
sg15
I400
sg16
g12
sg17
g12
sg18
VC:\u005cWINDOWS\u005cFonts\u005cntailu.ttf
p1580
sg20
g21
sbag1
(g8
g3
NtRp1581
(dp1582
g11
g12
sg13
VDutch801 XBd BT
p1583
sg15
I700
sg16
g12
sg17
g12
sg18
Vc:\u005cwindows\u005cfonts\u005cdutcheb.ttf
p1584
sg20
g21
sbag1
(g8
g3
NtRp1585
(dp1586
g11
g12
sg13
VBlackadder ITC
p1587
sg15
I900
sg16
g12
sg17
g12
sg18
Vc:\u005cwindows\u005cfonts\u005citcblkad.ttf
p1588
sg20
g21
sbag1
(g8
g3
NtRp1589
(dp1590
g11
g12
sg13
VGe'ez-3
p1591
sg15
I400
sg16
g12
sg17
g12
sg18
Vc:\u005cwindows\u005cfonts\u005cgeez3.ttf
p1592
sg20
g21
sbag1
(g8
g3
NtRp1593
(dp1594
g11
g12
sg13
VBaskerville Old Face
p1595
sg15
I400
sg16
g12
sg17
g12
sg18
Vc:\u005cwindows\u005cfonts\u005cbaskvill.ttf
p1596
sg20
g21
sbag1
(g8
g3
NtRp1597
(dp1598
g11
g12
sg13
VGothicG
p1599
sg15
I400
sg16
g12
sg17
g12
sg18
Vc:\u005cwindows\u005cfonts\u005cgothicg_.ttf
p1600
sg20
g21
sbag1
(g8
g3
NtRp1601
(dp1602
g11
g45
sg13
VRockwell
p1603
sg15
I400
sg16
g12
sg17
g12
sg18
Vc:\u005cwindows\u005cfonts\u005crocki.ttf
p1604
sg20
g21
sbag1
(g8
g3
NtRp1605
(dp1606
g11
g12
sg13
VTahoma
p1607
sg15
I400
sg16
g12
sg17
g12
sg18
Vc:\u005cwindows\u005cfonts\u005ctahoma.ttf
p1608
sg20
g21
sbag1
(g8
g3
NtRp1609
(dp1610
g11
g45
sg13
VCalisto MT
p1611
sg15
I400
sg16
g12
sg17
g12
sg18
VC:\u005cWINDOWS\u005cFonts\u005cCALISTI.TTF
p1612
sg20
g21
sbag1
(g8
g3
NtRp1613
(dp1614
g11
g12
sg13
VDubai
p1615
sg15
I400
sg16
g12
sg17
g12
sg18
Vc:\u005cwindows\u005cfonts\u005cdubai-regular.ttf
p1616
sg20
g21
sbag1
(g8
g3
NtRp1617
(dp1618
g11
g12
sg13
VVG2000 Title
p1619
sg15
I400
sg16
g12
sg17
g12
sg18
Vc:\u005cwindows\u005cfonts\u005cvg2000t.ttf
p1620
sg20
g21
sbag1
(g8
g3
NtRp1621
(dp1622
g11
g12
sg13
VGaramond
p1623
sg15
I700
sg16
g12
sg17
g12
sg18
Vc:\u005cwindows\u005cfonts\u005cgarabd.ttf
p1624
sg20
g21
sbag1
(g8
g3
NtRp1625
(dp1626
g11
g12
sg13
VSegoe UI
p1627
sg15
I400
sg16
g12
sg17
g12
sg18
Vc:\u005cwindows\u005cfonts\u005cseguibl.ttf
p1628
sg20
g21
sbag1
(g8
g3
NtRp1629
(dp1630
g11
g12
sg13
VProxy 6
p1631
sg15
I400
sg16
g12
sg17
g12
sg18
VC:\u005cWINDOWS\u005cFonts\u005cmtproxy6.ttf
p1632
sg20
g21
sbag1
(g8
g3
NtRp1633
(dp1634
g11
g45
sg13
VCorbel
p1635
sg15
I400
sg16
g12
sg17
g12
sg18
VC:\u005cWINDOWS\u005cFonts\u005ccorbeli.ttf
p1636
sg20
g21
sbag1
(g8
g3
NtRp1637
(dp1638
g11
g12
sg13
VJuice ITC
p1639
sg15
I400
sg16
g12
sg17
g12
sg18
VC:\u005cWINDOWS\u005cFonts\u005cJUICE___.TTF
p1640
sg20
g21
sbag1
(g8
g3
NtRp1641
(dp1642
g11
g12
sg13
VGeezNewB
p1643
sg15
I400
sg16
g12
sg17
g12
sg18
VC:\u005cWINDOWS\u005cFonts\u005cGEEZNBRG.TTF
p1644
sg20
g21
sbag1
(g8
g3
NtRp1645
(dp1646
g11
g12
sg13
VESRI Geometric Symbols
p1647
sg15
I400
sg16
g12
sg17
g12
sg18
Vc:\u005cwindows\u005cfonts\u005cesri_3.ttf
p1648
sg20
g21
sbag1
(g8
g3
NtRp1649
(dp1650
g11
g12
sg13
VNirmala UI
p1651
sg15
I700
sg16
g12
sg17
g12
sg18
VC:\u005cWINDOWS\u005cFonts\u005cNirmalaB.ttf
p1652
sg20
g21
sbag1
(g8
g3
NtRp1653
(dp1654
g11
g12
sg13
VVG Geez Numbers
p1655
sg15
I400
sg16
g12
sg17
g12
sg18
Vc:\u005cwindows\u005cfonts\u005cvgn.ttf
p1656
sg20
g21
sbag1
(g8
g3
NtRp1657
(dp1658
g11
g12
sg13
VGeezNewA
p1659
sg15
I400
sg16
g12
sg17
g12
sg18
Vc:\u005cwindows\u005cfonts\u005cgeeznarg.ttf
p1660
sg20
g21
sbag1
(g8
g3
NtRp1661
(dp1662
g11
g12
sg13
VESRI MilSym 05
p1663
sg15
I400
sg16
g12
sg17
g12
sg18
VC:\u005cWINDOWS\u005cFonts\u005cesri_25.ttf
p1664
sg20
g21
sbag1
(g8
g3
NtRp1665
(dp1666
g11
g12
sg13
VTw Cen MT Condensed Extra Bold
p1667
sg15
I700
sg16
g191
sg17
g12
sg18
Vc:\u005cwindows\u005cfonts\u005ctcceb.ttf
p1668
sg20
g21
sbag1
(g8
g3
NtRp1669
(dp1670
g11
g12
sg13
VCalisto MT
p1671
sg15
I400
sg16
g12
sg17
g12
sg18
Vc:\u005cwindows\u005cfonts\u005ccalist.ttf
p1672
sg20
g21
sbag1
(g8
g3
NtRp1673
(dp1674
g11
g12
sg13
VCurlz MT
p1675
sg15
I400
sg16
g12
sg17
g12
sg18
Vc:\u005cwindows\u005cfonts\u005ccurlz___.ttf
p1676
sg20
g21
sbag1
(g8
g3
NtRp1677
(dp1678
g11
g45
sg13
VArial
p1679
sg15
I700
sg16
g12
sg17
g12
sg18
Vc:\u005cwindows\u005cfonts\u005carialbi.ttf
p1680
sg20
g21
sbag1
(g8
g3
NtRp1681
(dp1682
g11
g45
sg13
VTrebuchet MS
p1683
sg15
I400
sg16
g12
sg17
g12
sg18
Vc:\u005cwindows\u005cfonts\u005ctrebucit.ttf
p1684
sg20
g21
sbag1
(g8
g3
NtRp1685
(dp1686
g11
g12
sg13
VBritannic Bold
p1687
sg15
I700
sg16
g12
sg17
g12
sg18
Vc:\u005cwindows\u005cfonts\u005cbritanic.ttf
p1688
sg20
g21
sbag1
(g8
g3
NtRp1689
(dp1690
g11
g12
sg13
VESRI AMFM Gas
p1691
sg15
I400
sg16
g12
sg17
g12
sg18
Vc:\u005cwindows\u005cfonts\u005cesri_151.ttf
p1692
sg20
g21
sbag1
(g8
g3
NtRp1693
(dp1694
g11
g12
sg13
VBlackadder ITC
p1695
sg15
I900
sg16
g12
sg17
g12
sg18
VC:\u005cWINDOWS\u005cFonts\u005cITCBLKAD.TTF
p1696
sg20
g21
sbag1
(g8
g3
NtRp1697
(dp1698
g11
g12
sg13
VCourier New
p1699
sg15
I700
sg16
g12
sg17
g12
sg18
Vc:\u005cwindows\u005cfonts\u005ccourbd.ttf
p1700
sg20
g21
sbag1
(g8
g3
NtRp1701
(dp1702
g11
g12
sg13
VET-Saba
p1703
sg15
I400
sg16
g12
sg17
g12
sg18
VC:\u005cWINDOWS\u005cFonts\u005cEtsaba.ttf
p1704
sg20
g21
sbag1
(g8
g3
NtRp1705
(dp1706
g11
g12
sg13
VPerpetua Titling MT
p1707
sg15
I200
sg16
g12
sg17
g12
sg18
Vc:\u005cwindows\u005cfonts\u005cpertili.ttf
p1708
sg20
g21
sbag1
(g8
g3
NtRp1709
(dp1710
g11
g12
sg13
VMonospac821 BT
p1711
sg15
I400
sg16
g12
sg17
g12
sg18
Vc:\u005cwindows\u005cfonts\u005cmonos.ttf
p1712
sg20
g21
sbag1
(g8
g3
NtRp1713
(dp1714
g11
g12
sg13
VPalatino Linotype
p1715
sg15
I700
sg16
g12
sg17
g12
sg18
VC:\u005cWINDOWS\u005cFonts\u005cpalab.ttf
p1716
sg20
g21
sbag1
(g8
g3
NtRp1717
(dp1718
g11
g12
sg13
VInk Free
p1719
sg15
I400
sg16
g12
sg17
g12
sg18
VC:\u005cWINDOWS\u005cFonts\u005cInkfree.ttf
p1720
sg20
g21
sbag1
(g8
g3
NtRp1721
(dp1722
g11
g12
sg13
VProxy 1
p1723
sg15
I400
sg16
g12
sg17
g12
sg18
VC:\u005cWINDOWS\u005cFonts\u005cmtproxy1.ttf
p1724
sg20
g21
sbag1
(g8
g3
NtRp1725
(dp1726
g11
g12
sg13
VSwis721 BT
p1727
sg15
I400
sg16
g12
sg17
g12
sg18
VC:\u005cWINDOWS\u005cFonts\u005cswiss.ttf
p1728
sg20
g21
sbag1
(g8
g3
NtRp1729
(dp1730
g11
g45
sg13
VFranklin Gothic Medium
p1731
sg15
I500
sg16
g12
sg17
g12
sg18
Vc:\u005cwindows\u005cfonts\u005cframdit.ttf
p1732
sg20
g21
sbag1
(g8
g3
NtRp1733
(dp1734
g11
g12
sg13
VBauhaus 93
p1735
sg15
I400
sg16
g12
sg17
g12
sg18
Vc:\u005cwindows\u005cfonts\u005cbauhs93.ttf
p1736
sg20
g21
sbag1
(g8
g3
NtRp1737
(dp1738
g11
g12
sg13
VVG2 Agazian
p1739
sg15
I900
sg16
g12
sg17
g12
sg18
VC:\u005cWINDOWS\u005cFonts\u005cvg2ag.TTF
p1740
sg20
g21
sbag1
(g8
g3
NtRp1741
(dp1742
g11
g45
sg13
VLucida Calligraphy
p1743
sg15
I400
sg16
g12
sg17
g12
sg18
Vc:\u005cwindows\u005cfonts\u005clcallig.ttf
p1744
sg20
g21
sbag1
(g8
g3
NtRp1745
(dp1746
g11
g12
sg13
VTw Cen MT Condensed
p1747
sg15
I400
sg16
g191
sg17
g12
sg18
VC:\u005cWINDOWS\u005cFonts\u005cTCCM____.TTF
p1748
sg20
g21
sbag1
(g8
g3
NtRp1749
(dp1750
g11
g12
sg13
VCentury Schoolbook
p1751
sg15
I700
sg16
g12
sg17
g12
sg18
VC:\u005cWINDOWS\u005cFonts\u005cSCHLBKB.TTF
p1752
sg20
g21
sbag1
(g8
g3
NtRp1753
(dp1754
g11
g12
sg13
VTechnicLite
p1755
sg15
I400
sg16
g12
sg17
g12
sg18
Vc:\u005cwindows\u005cfonts\u005ctechl___.ttf
p1756
sg20
g21
sbag1
(g8
g3
NtRp1757
(dp1758
g11
g45
sg13
VGill Sans MT
p1759
sg15
I700
sg16
g12
sg17
g12
sg18
Vc:\u005cwindows\u005cfonts\u005cgilbi___.ttf
p1760
sg20
g21
sbag1
(g8
g3
NtRp1761
(dp1762
g11
g12
sg13
VMongolian Baiti
p1763
sg15
I400
sg16
g12
sg17
g12
sg18
VC:\u005cWINDOWS\u005cFonts\u005cmonbaiti.ttf
p1764
sg20
g21
sbag1
(g8
g3
NtRp1765
(dp1766
g11
g12
sg13
VColonna MT
p1767
sg15
I400
sg16
g12
sg17
g12
sg18
Vc:\u005cwindows\u005cfonts\u005ccolonna.ttf
p1768
sg20
g21
sbag1
(g8
g3
NtRp1769
(dp1770
g11
g12
sg13
VLeelawadee UI
p1771
sg15
I700
sg16
g12
sg17
g12
sg18
Vc:\u005cwindows\u005cfonts\u005cleelauib.ttf
p1772
sg20
g21
sbag1
(g8
g3
NtRp1773
(dp1774
g11
g12
sg13
VMicrosoft Uighur
p1775
sg15
I700
sg16
g12
sg17
g12
sg18
Vc:\u005cwindows\u005cfonts\u005cmsuighub.ttf
p1776
sg20
g21
sbag1
(g8
g3
NtRp1777
(dp1778
g11
g45
sg13
VSwis721 Lt BT
p1779
sg15
I200
sg16
g12
sg17
g12
sg18
VC:\u005cWINDOWS\u005cFonts\u005cswissli.ttf
p1780
sg20
g21
sbag1
(g8
g3
NtRp1781
(dp1782
g11
g12
sg13
VCentury
p1783
sg15
I400
sg16
g12
sg17
g12
sg18
VC:\u005cWINDOWS\u005cFonts\u005cCENTURY.TTF
p1784
sg20
g21
sbag1
(g8
g3
NtRp1785
(dp1786
g11
g12
sg13
VComic Sans MS
p1787
sg15
I700
sg16
g12
sg17
g12
sg18
Vc:\u005cwindows\u005cfonts\u005ccomicbd.ttf
p1788
sg20
g21
sbag1
(g8
g3
NtRp1789
(dp1790
g11
g12
sg13
VCandara
p1791
sg15
I700
sg16
g12
sg17
g12
sg18
Vc:\u005cwindows\u005cfonts\u005ccandarab.ttf
p1792
sg20
g21
sbag1
(g8
g3
NtRp1793
(dp1794
g11
g12
sg13
VPoor Richard
p1795
sg15
I400
sg16
g12
sg17
g12
sg18
VC:\u005cWINDOWS\u005cFonts\u005cPOORICH.TTF
p1796
sg20
g21
sbag1
(g8
g3
NtRp1797
(dp1798
g11
g12
sg13
VAGF - Ejji Tsihuf
p1799
sg15
I400
sg16
g12
sg17
g12
sg18
Vc:\u005cwindows\u005cfonts\u005cagafari_ejji_tsihuf.ttf
p1800
sg20
g21
sbag1
(g8
g3
NtRp1801
(dp1802
g11
g45
sg13
VItalic
p1803
sg15
I400
sg16
g12
sg17
g12
sg18
VC:\u005cWINDOWS\u005cFonts\u005citalic__.ttf
p1804
sg20
g21
sbag1
(g8
g3
NtRp1805
(dp1806
g11
g28
sg13
VLucida Sans Typewriter
p1807
sg15
I400
sg16
g12
sg17
g12
sg18
Vc:\u005cwindows\u005cfonts\u005cltypeo.ttf
p1808
sg20
g21
sbag1
(g8
g3
NtRp1809
(dp1810
g11
g45
sg13
VBell MT
p1811
sg15
I400
sg16
g12
sg17
g12
sg18
VC:\u005cWINDOWS\u005cFonts\u005cBELLI.TTF
p1812
sg20
g21
sbag1
(g8
g3
NtRp1813
(dp1814
g11
g12
sg13
VESRI Caves 1
p1815
sg15
I400
sg16
g12
sg17
g12
sg18
VC:\u005cWINDOWS\u005cFonts\u005cesri_375.ttf
p1816
sg20
g21
sbag1
(g8
g3
NtRp1817
(dp1818
g11
g12
sg13
VMyanmar Text
p1819
sg15
I700
sg16
g12
sg17
g12
sg18
VC:\u005cWINDOWS\u005cFonts\u005cmmrtextb.ttf
p1820
sg20
g21
sbag1
(g8
g3
NtRp1821
(dp1822
g11
g12
sg13
VESRI MilMod 02
p1823
sg15
I400
sg16
g12
sg17
g12
sg18
Vc:\u005cwindows\u005cfonts\u005cesri_19.ttf
p1824
sg20
g21
sbag1
(g8
g3
NtRp1825
(dp1826
g11
g12
sg13
VGoudy Stout
p1827
sg15
I400
sg16
g12
sg17
g12
sg18
Vc:\u005cwindows\u005cfonts\u005cgoudysto.ttf
p1828
sg20
g21
sbag1
(g8
g3
NtRp1829
(dp1830
g11
g12
sg13
VSwis721 BdCnOul BT
p1831
sg15
I700
sg16
g191
sg17
g12
sg18
VC:\u005cWINDOWS\u005cFonts\u005cswisscbo.ttf
p1832
sg20
g21
sbag1
(g8
g3
NtRp1833
(dp1834
g11
g12
sg13
VGoudy Old Style
p1835
sg15
I700
sg16
g12
sg17
g12
sg18
VC:\u005cWINDOWS\u005cFonts\u005cGOUDOSB.TTF
p1836
sg20
g21
sbag1
(g8
g3
NtRp1837
(dp1838
g11
g12
sg13
VPower Geez Unicode1
p1839
sg15
I400
sg16
g12
sg17
g12
sg18
VC:\u005cWINDOWS\u005cFonts\u005cPGUNICODE1.TTF
p1840
sg20
g21
sbag1
(g8
g3
NtRp1841
(dp1842
g11
g12
sg13
VSansSerif
p1843
sg15
I400
sg16
g12
sg17
g12
sg18
Vc:\u005cwindows\u005cfonts\u005csanss___.ttf
p1844
sg20
g21
sbag1
(g8
g3
NtRp1845
(dp1846
g11
g12
sg13
VGill Sans Ultra Bold Condensed
p1847
sg15
I700
sg16
g191
sg17
g12
sg18
Vc:\u005cwindows\u005cfonts\u005cgillubcd.ttf
p1848
sg20
g21
sbag1
(g8
g3
NtRp1849
(dp1850
g11
g12
sg13
VEuroRoman
p1851
sg15
I500
sg16
g12
sg17
g12
sg18
Vc:\u005cwindows\u005cfonts\u005ceurr____.ttf
p1852
sg20
g21
sbag1
(g8
g3
NtRp1853
(dp1854
g11
g12
sg13
VFreestyle Script
p1855
sg15
I400
sg16
g12
sg17
g12
sg18
VC:\u005cWINDOWS\u005cFonts\u005cFREESCPT.TTF
p1856
sg20
g21
sbag1
(g8
g3
NtRp1857
(dp1858
g11
g45
sg13
VItalicT
p1859
sg15
I400
sg16
g12
sg17
g12
sg18
Vc:\u005cwindows\u005cfonts\u005citalict_.ttf
p1860
sg20
g21
sbag1
(g8
g3
NtRp1861
(dp1862
g11
g12
sg13
VESRI IGL Font22
p1863
sg15
I400
sg16
g12
sg17
g12
sg18
VC:\u005cWINDOWS\u005cFonts\u005cesri_222.ttf
p1864
sg20
g21
sbag1
(g8
g3
NtRp1865
(dp1866
g11
g12
sg13
VGill Sans MT Ext Condensed Bold
p1867
sg15
I700
sg16
g191
sg17
g12
sg18
Vc:\u005cwindows\u005cfonts\u005cglsnecb.ttf
p1868
sg20
g21
sbag1
(g8
g3
NtRp1869
(dp1870
g11
g12
sg13
VPower Geez Unicode1
p1871
sg15
I400
sg16
g12
sg17
g12
sg18
Vc:\u005cwindows\u005cfonts\u005cpgunicode1.ttf
p1872
sg20
g21
sbag1
(g8
g3
NtRp1873
(dp1874
g11
g12
sg13
VFranklin Gothic Book
p1875
sg15
I400
sg16
g12
sg17
g12
sg18
Vc:\u005cwindows\u005cfonts\u005cfrabk.ttf
p1876
sg20
g21
sbag1
(g8
g3
NtRp1877
(dp1878
g11
g28
sg13
VLucida Sans Typewriter
p1879
sg15
I400
sg16
g12
sg17
g12
sg18
VC:\u005cWINDOWS\u005cFonts\u005cLTYPEO.TTF
p1880
sg20
g21
sbag1
(g8
g3
NtRp1881
(dp1882
g11
g12
sg13
VMicrosoft Himalaya
p1883
sg15
I400
sg16
g12
sg17
g12
sg18
VC:\u005cWINDOWS\u005cFonts\u005chimalaya.ttf
p1884
sg20
g21
sbag1
(g8
g3
NtRp1885
(dp1886
g11
g12
sg13
VStylus BT
p1887
sg15
I400
sg16
g12
sg17
g12
sg18
Vc:\u005cwindows\u005cfonts\u005cstylu.ttf
p1888
sg20
g21
sbag1
(g8
g3
NtRp1889
(dp1890
g11
g12
sg13
VFranklin Gothic Heavy
p1891
sg15
I800
sg16
g12
sg17
g12
sg18
VC:\u005cWINDOWS\u005cFonts\u005cFRAHV.TTF
p1892
sg20
g21
sbag1
(g8
g3
NtRp1893
(dp1894
g11
g12
sg13
VGoudy Old Style
p1895
sg15
I700
sg16
g12
sg17
g12
sg18
Vc:\u005cwindows\u005cfonts\u005cgoudosb.ttf
p1896
sg20
g21
sbag1
(g8
g3
NtRp1897
(dp1898
g11
g12
sg13
VEras Light ITC
p1899
sg15
I200
sg16
g12
sg17
g12
sg18
Vc:\u005cwindows\u005cfonts\u005ceraslght.ttf
p1900
sg20
g21
sbag1
(g8
g3
NtRp1901
(dp1902
g11
g45
sg13
VBook Antiqua
p1903
sg15
I700
sg16
g12
sg17
g12
sg18
VC:\u005cWINDOWS\u005cFonts\u005cANTQUABI.TTF
p1904
sg20
g21
sbag1
(g8
g3
NtRp1905
(dp1906
g11
g12
sg13
VLeelawadee UI
p1907
sg15
I400
sg16
g12
sg17
g12
sg18
VC:\u005cWINDOWS\u005cFonts\u005cLeelUIsl.ttf
p1908
sg20
g21
sbag1
(g8
g3
NtRp1909
(dp1910
g11
g12
sg13
VESRI Transportation & Civic
p1911
sg15
I400
sg16
g12
sg17
g12
sg18
VC:\u005cWINDOWS\u005cFonts\u005cesri_9.ttf
p1912
sg20
g21
sbag1
(g8
g3
NtRp1913
(dp1914
g11
g12
sg13
VVerdana
p1915
sg15
I400
sg16
g12
sg17
g12
sg18
VC:\u005cWINDOWS\u005cFonts\u005cverdana.ttf
p1916
sg20
g21
sbag1
(g8
g3
NtRp1917
(dp1918
g11
g12
sg13
VESRI Conservation
p1919
sg15
I400
sg16
g12
sg17
g12
sg18
VC:\u005cWINDOWS\u005cFonts\u005cesri_730.ttf
p1920
sg20
g21
sbag1
(g8
g3
NtRp1921
(dp1922
g11
g12
sg13
VComplex
p1923
sg15
I400
sg16
g12
sg17
g12
sg18
Vc:\u005cwindows\u005cfonts\u005ccomplex_.ttf
p1924
sg20
g21
sbag1
(g8
g3
NtRp1925
(dp1926
g11
g12
sg13
VPerpetua Titling MT
p1927
sg15
I700
sg16
g12
sg17
g12
sg18
Vc:\u005cwindows\u005cfonts\u005cpertibd.ttf
p1928
sg20
g21
sbag1
(g8
g3
NtRp1929
(dp1930
g11
g45
sg13
VElephant
p1931
sg15
I400
sg16
g12
sg17
g12
sg18
Vc:\u005cwindows\u005cfonts\u005celephnti.ttf
p1932
sg20
g21
sbag1
(g8
g3
NtRp1933
(dp1934
g11
g45
sg13
VCentury Gothic
p1935
sg15
I700
sg16
g12
sg17
g12
sg18
Vc:\u005cwindows\u005cfonts\u005cgothicbi.ttf
p1936
sg20
g21
sbag1
(g8
g3
NtRp1937
(dp1938
g11
g12
sg13
VHarrington
p1939
sg15
I400
sg16
g12
sg17
g12
sg18
Vc:\u005cwindows\u005cfonts\u005charngton.ttf
p1940
sg20
g21
sbag1
(g8
g3
NtRp1941
(dp1942
g11
g12
sg13
VESRI Telecom
p1943
sg15
I400
sg16
g12
sg17
g12
sg18
VC:\u005cWINDOWS\u005cFonts\u005cesri_160.ttf
p1944
sg20
g21
sbag1
(g8
g3
NtRp1945
(dp1946
g11
g45
sg13
VCalibri
p1947
sg15
I700
sg16
g12
sg17
g12
sg18
Vc:\u005cwindows\u005cfonts\u005ccalibriz.ttf
p1948
sg20
g21
sbag1
(g8
g3
NtRp1949
(dp1950
g11
g12
sg13
VCalifornian FB
p1951
sg15
I400
sg16
g12
sg17
g12
sg18
VC:\u005cWINDOWS\u005cFonts\u005cCALIFR.TTF
p1952
sg20
g21
sbag1
(g8
g3
NtRp1953
(dp1954
g11
g45
sg13
VBodoni MT
p1955
sg15
I400
sg16
g12
sg17
g12
sg18
VC:\u005cWINDOWS\u005cFonts\u005cBOD_I.TTF
p1956
sg20
g21
sbag1
(g8
g3
NtRp1957
(dp1958
g11
g12
sg13
VCooper Black
p1959
sg15
I900
sg16
g12
sg17
g12
sg18
VC:\u005cWINDOWS\u005cFonts\u005cCOOPBL.TTF
p1960
sg20
g21
sbag1
(g8
g3
NtRp1961
(dp1962
g11
g12
sg13
VFelix Titling
p1963
sg15
I400
sg16
g12
sg17
g12
sg18
VC:\u005cWINDOWS\u005cFonts\u005cFELIXTI.TTF
p1964
sg20
g21
sbag1
(g8
g3
NtRp1965
(dp1966
g11
g12
sg13
VBookman Old Style
p1967
sg15
I700
sg16
g12
sg17
g12
sg18
VC:\u005cWINDOWS\u005cFonts\u005cBOOKOSB.TTF
p1968
sg20
g21
sbag1
(g8
g3
NtRp1969
(dp1970
g11
g12
sg13
VGill Sans MT
p1971
sg15
I700
sg16
g12
sg17
g12
sg18
VC:\u005cWINDOWS\u005cFonts\u005cGILB____.TTF
p1972
sg20
g21
sbag1
(g8
g3
NtRp1973
(dp1974
g11
g12
sg13
VESRI IGL Font25
p1975
sg15
I400
sg16
g12
sg17
g12
sg18
Vc:\u005cwindows\u005cfonts\u005cesri_225.ttf
p1976
sg20
g21
sbag1
(g8
g3
NtRp1977
(dp1978
g11
g45
sg13
VGaramond
p1979
sg15
I400
sg16
g12
sg17
g12
sg18
Vc:\u005cwindows\u005cfonts\u005cgarait.ttf
p1980
sg20
g21
sbag1
(g8
g3
NtRp1981
(dp1982
g11
g12
sg13
VDutch801 Rm BT
p1983
sg15
I500
sg16
g12
sg17
g12
sg18
Vc:\u005cwindows\u005cfonts\u005cdutch.ttf
p1984
sg20
g21
sbag1
(g8
g3
NtRp1985
(dp1986
g11
g12
sg13
VCalisto MT
p1987
sg15
I700
sg16
g12
sg17
g12
sg18
VC:\u005cWINDOWS\u005cFonts\u005cCALISTB.TTF
p1988
sg20
g21
sbag1
(g8
g3
NtRp1989
(dp1990
g11
g45
sg13
VCentury Schoolbook
p1991
sg15
I400
sg16
g12
sg17
g12
sg18
VC:\u005cWINDOWS\u005cFonts\u005cSCHLBKI.TTF
p1992
sg20
g21
sbag1
(g8
g3
NtRp1993
(dp1994
g11
g12
sg13
VGill Sans MT
p1995
sg15
I700
sg16
g12
sg17
g12
sg18
Vc:\u005cwindows\u005cfonts\u005cgilb____.ttf
p1996
sg20
g21
sbag1
(g8
g3
NtRp1997
(dp1998
g11
g12
sg13
VET-NCI2000
p1999
sg15
I400
sg16
g12
sg17
g12
sg18
VC:\u005cWINDOWS\u005cFonts\u005cetnci2.ttf
p2000
sg20
g21
sbag1
(g8
g3
NtRp2001
(dp2002
g11
g12
sg13
VGigi
p2003
sg15
I400
sg16
g12
sg17
g12
sg18
VC:\u005cWINDOWS\u005cFonts\u005cGIGI.TTF
p2004
sg20
g21
sbag1
(g8
g3
NtRp2005
(dp2006
g11
g12
sg13
VLeelawadee UI
p2007
sg15
I400
sg16
g12
sg17
g12
sg18
Vc:\u005cwindows\u005cfonts\u005cleeluisl.ttf
p2008
sg20
g21
sbag1
(g8
g3
NtRp2009
(dp2010
g11
g12
sg13
VCentury
p2011
sg15
I400
sg16
g12
sg17
g12
sg18
Vc:\u005cwindows\u005cfonts\u005ccentury.ttf
p2012
sg20
g21
sbag1
(g8
g3
NtRp2013
(dp2014
g11
g12
sg13
VAIGDT
p2015
sg15
I400
sg16
g12
sg17
g12
sg18
VC:\u005cWINDOWS\u005cFonts\u005cAIGDT___.TTF
p2016
sg20
g21
sbag1
(g8
g3
NtRp2017
(dp2018
g11
g12
sg13
VESRI IGL Font20
p2019
sg15
I400
sg16
g12
sg17
g12
sg18
Vc:\u005cwindows\u005cfonts\u005cesri_220.ttf
p2020
sg20
g21
sbag1
(g8
g3
NtRp2021
(dp2022
g11
g12
sg13
VAGF - Rejim
p2023
sg15
I400
sg16
g12
sg17
g12
sg18
Vc:\u005cwindows\u005cfonts\u005cagafari_rejim.ttf
p2024
sg20
g21
sbag1
(g8
g3
NtRp2025
(dp2026
g11
g12
sg13
VArial
p2027
sg15
I700
sg16
g191
sg17
g12
sg18
Vc:\u005cwindows\u005cfonts\u005carialnb.ttf
p2028
sg20
g21
sbag1
(g8
g3
NtRp2029
(dp2030
g11
g12
sg13
VMS Outlook
p2031
sg15
I400
sg16
g12
sg17
g12
sg18
Vc:\u005cwindows\u005cfonts\u005coutlook.ttf
p2032
sg20
g21
sbag1
(g8
g3
NtRp2033
(dp2034
g11
g12
sg13
VBookshelf Symbol 7
p2035
sg15
I400
sg16
g12
sg17
g12
sg18
VC:\u005cWINDOWS\u005cFonts\u005cBSSYM7.TTF
p2036
sg20
g21
sbag1
(g8
g3
NtRp2037
(dp2038
g11
g45
sg13
VLucida Fax
p2039
sg15
I700
sg16
g12
sg17
g12
sg18
Vc:\u005cwindows\u005cfonts\u005clfaxdi.ttf
p2040
sg20
g21
sbag1
(g8
g3
NtRp2041
(dp2042
g11
g12
sg13
VCandara
p2043
sg15
I400
sg16
g12
sg17
g12
sg18
Vc:\u005cwindows\u005cfonts\u005ccandara.ttf
p2044
sg20
g21
sbag1
(g8
g3
NtRp2045
(dp2046
g11
g28
sg13
VSansSerif
p2047
sg15
I400
sg16
g12
sg17
g12
sg18
VC:\u005cWINDOWS\u005cFonts\u005csansso__.ttf
p2048
sg20
g21
sbag1
(g8
g3
NtRp2049
(dp2050
g11
g12
sg13
VISOCT2
p2051
sg15
I400
sg16
g12
sg17
g12
sg18
VC:\u005cWINDOWS\u005cFonts\u005cisoct2__.ttf
p2052
sg20
g21
sbag1
(g8
g3
NtRp2053
(dp2054
g11
g12
sg13
VET-NEBAR
p2055
sg15
I700
sg16
g12
sg17
g12
sg18
Vc:\u005cwindows\u005cfonts\u005cetnebarb.ttf
p2056
sg20
g21
sbag1
(g8
g3
NtRp2057
(dp2058
g11
g12
sg13
VArial Rounded MT Bold
p2059
sg15
I700
sg16
g12
sg17
g12
sg18
VC:\u005cWINDOWS\u005cFonts\u005cARLRDBD.TTF
p2060
sg20
g21
sbag1
(g8
g3
NtRp2061
(dp2062
g11
g12
sg13
VRockwell
p2063
sg15
I700
sg16
g12
sg17
g12
sg18
VC:\u005cWINDOWS\u005cFonts\u005cROCKB.TTF
p2064
sg20
g21
sbag1
(g8
g3
NtRp2065
(dp2066
g11
g12
sg13
VLucida Fax
p2067
sg15
I400
sg16
g12
sg17
g12
sg18
Vc:\u005cwindows\u005cfonts\u005clfax.ttf
p2068
sg20
g21
sbag1
(g8
g3
NtRp2069
(dp2070
g11
g12
sg13
VCandara
p2071
sg15
I200
sg16
g12
sg17
g12
sg18
VC:\u005cWINDOWS\u005cFonts\u005cCandaral.ttf
p2072
sg20
g21
sbag1
(g8
g3
NtRp2073
(dp2074
g11
g12
sg13
VFranklin Gothic Demi Cond
p2075
sg15
I600
sg16
g191
sg17
g12
sg18
VC:\u005cWINDOWS\u005cFonts\u005cFRADMCN.TTF
p2076
sg20
g21
sbag1
(g8
g3
NtRp2077
(dp2078
g11
g45
sg13
VSwis721 Cn BT
p2079
sg15
I700
sg16
g191
sg17
g12
sg18
VC:\u005cWINDOWS\u005cFonts\u005cswisscbi.ttf
p2080
sg20
g21
sbag1
(g8
g3
NtRp2081
(dp2082
g11
g28
sg13
VSansSerif
p2083
sg15
I700
sg16
g12
sg17
g12
sg18
Vc:\u005cwindows\u005cfonts\u005csanssbo_.ttf
p2084
sg20
g21
sbag1
(g8
g3
NtRp2085
(dp2086
g11
g12
sg13
VLucida Bright
p2087
sg15
I400
sg16
g12
sg17
g12
sg18
VC:\u005cWINDOWS\u005cFonts\u005cLBRITE.TTF
p2088
sg20
g21
sbag1
(g8
g3
NtRp2089
(dp2090
g11
g12
sg13
VESRI Surveyor
p2091
sg15
I400
sg16
g12
sg17
g12
sg18
VC:\u005cWINDOWS\u005cFonts\u005cesri_149.ttf
p2092
sg20
g21
sbag1
(g8
g3
NtRp2093
(dp2094
g11
g12
sg13
VScript MT Bold
p2095
sg15
I700
sg16
g12
sg17
g12
sg18
VC:\u005cWINDOWS\u005cFonts\u005cSCRIPTBL.TTF
p2096
sg20
g21
sbag1
(g8
g3
NtRp2097
(dp2098
g11
g12
sg13
VHaettenschweiler
p2099
sg15
I400
sg16
g12
sg17
g12
sg18
Vc:\u005cwindows\u005cfonts\u005chatten.ttf
p2100
sg20
g21
sbag1
(g8
g3
NtRp2101
(dp2102
g11
g12
sg13
VSegoe UI Symbol
p2103
sg15
I400
sg16
g12
sg17
g12
sg18
VC:\u005cWINDOWS\u005cFonts\u005cseguisym.ttf
p2104
sg20
g21
sbag1
(g8
g3
NtRp2105
(dp2106
g11
g12
sg13
VTechnic
p2107
sg15
I400
sg16
g12
sg17
g12
sg18
VC:\u005cWINDOWS\u005cFonts\u005ctechnic_.ttf
p2108
sg20
g21
sbag1
(g8
g3
NtRp2109
(dp2110
g11
g12
sg13
VMagneto
p2111
sg15
I700
sg16
g12
sg17
g12
sg18
VC:\u005cWINDOWS\u005cFonts\u005cMAGNETOB.TTF
p2112
sg20
g21
sbag1
(g8
g3
NtRp2113
(dp2114
g11
g12
sg13
VTw Cen MT Condensed
p2115
sg15
I700
sg16
g191
sg17
g12
sg18
VC:\u005cWINDOWS\u005cFonts\u005cTCCB____.TTF
p2116
sg20
g21
sbag1
(g8
g3
NtRp2117
(dp2118
g11
g12
sg13
VSwis721 BlkCn BT
p2119
sg15
I900
sg16
g191
sg17
g12
sg18
VC:\u005cWINDOWS\u005cFonts\u005cswissck.ttf
p2120
sg20
g21
sbag1
(g8
g3
NtRp2121
(dp2122
g11
g12
sg13
VTw Cen MT
p2123
sg15
I700
sg16
g12
sg17
g12
sg18
VC:\u005cWINDOWS\u005cFonts\u005cTCB_____.TTF
p2124
sg20
g21
sbag1
(g8
g3
NtRp2125
(dp2126
g11
g12
sg13
VESRI US Forestry 2
p2127
sg15
I400
sg16
g12
sg17
g12
sg18
VC:\u005cWINDOWS\u005cFonts\u005cesri_652.ttf
p2128
sg20
g21
sbag1
(g8
g3
NtRp2129
(dp2130
g11
g12
sg13
VGe'ez-1 Numbers
p2131
sg15
I400
sg16
g12
sg17
g12
sg18
Vc:\u005cwindows\u005cfonts\u005cgeez4.ttf
p2132
sg20
g21
sbag1
(g8
g3
NtRp2133
(dp2134
g11
g12
sg13
VBerlin Sans FB
p2135
sg15
I400
sg16
g12
sg17
g12
sg18
Vc:\u005cwindows\u005cfonts\u005cbrlnsr.ttf
p2136
sg20
g21
sbag1
(g8
g3
NtRp2137
(dp2138
g11
g12
sg13
VWingdings 2
p2139
sg15
I400
sg16
g12
sg17
g12
sg18
Vc:\u005cwindows\u005cfonts\u005cwingdng2.ttf
p2140
sg20
g21
sbag1
(g8
g3
NtRp2141
(dp2142
g11
g12
sg13
VMicrosoft Yi Baiti
p2143
sg15
I400
sg16
g12
sg17
g12
sg18
Vc:\u005cwindows\u005cfonts\u005cmsyi.ttf
p2144
sg20
g21
sbag1
(g8
g3
NtRp2145
(dp2146
g11
g12
sg13
VWingdings
p2147
sg15
I400
sg16
g12
sg17
g12
sg18
Vc:\u005cwindows\u005cfonts\u005cwingding.ttf
p2148
sg20
g21
sbag1
(g8
g3
NtRp2149
(dp2150
g11
g12
sg13
VGothicI
p2151
sg15
I400
sg16
g12
sg17
g12
sg18
VC:\u005cWINDOWS\u005cFonts\u005cgothici_.ttf
p2152
sg20
g21
sbag1
(g8
g3
NtRp2153
(dp2154
g11
g12
sg13
VCopperplate Gothic Bold
p2155
sg15
I700
sg16
g12
sg17
g12
sg18
VC:\u005cWINDOWS\u005cFonts\u005cCOPRGTB.TTF
p2156
sg20
g21
sbag1
(g8
g3
NtRp2157
(dp2158
g11
g12
sg13
VBell MT
p2159
sg15
I400
sg16
g12
sg17
g12
sg18
Vc:\u005cwindows\u005cfonts\u005cbell.ttf
p2160
sg20
g21
sbag1
(g8
g3
NtRp2161
(dp2162
g11
g12
sg13
VLeelawadee
p2163
sg15
I400
sg16
g12
sg17
g12
sg18
VC:\u005cWINDOWS\u005cFonts\u005cLEELAWAD.TTF
p2164
sg20
g21
sbag1
(g8
g3
NtRp2165
(dp2166
g11
g12
sg13
VJokerman
p2167
sg15
I400
sg16
g12
sg17
g12
sg18
VC:\u005cWINDOWS\u005cFonts\u005cJOKERMAN.TTF
p2168
sg20
g21
sbag1
(g8
g3
NtRp2169
(dp2170
g11
g12
sg13
VDubai
p2171
sg15
I200
sg16
g12
sg17
g12
sg18
Vc:\u005cwindows\u005cfonts\u005cdubai-light.ttf
p2172
sg20
g21
sbag1
(g8
g3
NtRp2173
(dp2174
g11
g12
sg13
VTw Cen MT
p2175
sg15
I400
sg16
g12
sg17
g12
sg18
VC:\u005cWINDOWS\u005cFonts\u005cTCM_____.TTF
p2176
sg20
g21
sbag1
(g8
g3
NtRp2177
(dp2178
g11
g12
sg13
VSwis721 Ex BT
p2179
sg15
I700
sg16
g12
sg17
g12
sg18
VC:\u005cWINDOWS\u005cFonts\u005cswisseb.ttf
p2180
sg20
g21
sbag1
(g8
g3
NtRp2181
(dp2182
g11
g12
sg13
VSegoe Script
p2183
sg15
I700
sg16
g12
sg17
g12
sg18
Vc:\u005cwindows\u005cfonts\u005csegoescb.ttf
p2184
sg20
g21
sbag1
(g8
g3
NtRp2185
(dp2186
g11
g12
sg13
VET-Saba
p2187
sg15
I700
sg16
g12
sg17
g12
sg18
Vc:\u005cwindows\u005cfonts\u005cetsabab.ttf
p2188
sg20
g21
sbag1
(g8
g3
NtRp2189
(dp2190
g11
g12
sg13
VJuice ITC
p2191
sg15
I400
sg16
g12
sg17
g12
sg18
Vc:\u005cwindows\u005cfonts\u005cjuice___.ttf
p2192
sg20
g21
sbag1
(g8
g3
NtRp2193
(dp2194
g11
g12
sg13
VLucida Sans
p2195
sg15
I400
sg16
g12
sg17
g12
sg18
Vc:\u005cwindows\u005cfonts\u005clsans.ttf
p2196
sg20
g21
sbag1
(g8
g3
NtRp2197
(dp2198
g11
g12
sg13
VPerpetua
p2199
sg15
I700
sg16
g12
sg17
g12
sg18
VC:\u005cWINDOWS\u005cFonts\u005cPERB____.TTF
p2200
sg20
g21
sbag1
(g8
g3
NtRp2201
(dp2202
g11
g12
sg13
VFranklin Gothic Medium Cond
p2203
sg15
I500
sg16
g191
sg17
g12
sg18
Vc:\u005cwindows\u005cfonts\u005cframdcn.ttf
p2204
sg20
g21
sbag1
(g8
g3
NtRp2205
(dp2206
g11
g45
sg13
VTw Cen MT
p2207
sg15
I700
sg16
g12
sg17
g12
sg18
VC:\u005cWINDOWS\u005cFonts\u005cTCBI____.TTF
p2208
sg20
g21
sbag1
(g8
g3
NtRp2209
(dp2210
g11
g45
sg13
VCandara
p2211
sg15
I200
sg16
g12
sg17
g12
sg18
Vc:\u005cwindows\u005cfonts\u005ccandarali.ttf
p2212
sg20
g21
sbag1
(g8
g3
NtRp2213
(dp2214
g11
g12
sg13
VET-Saba New
p2215
sg15
I400
sg16
g12
sg17
g12
sg18
VC:\u005cWINDOWS\u005cFonts\u005cETSabaNW.TTF
p2216
sg20
g21
sbag1
(g8
g3
NtRp2217
(dp2218
g11
g12
sg13
VRomanD
p2219
sg15
I500
sg16
g12
sg17
g12
sg18
VC:\u005cWINDOWS\u005cFonts\u005cromand__.ttf
p2220
sg20
g21
sbag1
(g8
g3
NtRp2221
(dp2222
g11
g12
sg13
VBook Antiqua
p2223
sg15
I700
sg16
g12
sg17
g12
sg18
Vc:\u005cwindows\u005cfonts\u005cantquab.ttf
p2224
sg20
g21
sbag1
(g8
g3
NtRp2225
(dp2226
g11
g45
sg13
VBrush Script MT
p2227
sg15
I400
sg16
g12
sg17
g12
sg18
Vc:\u005cwindows\u005cfonts\u005cbrushsci.ttf
p2228
sg20
g21
sbag1
(g8
g3
NtRp2229
(dp2230
g11
g12
sg13
VCandara
p2231
sg15
I400
sg16
g12
sg17
g12
sg18
VC:\u005cWINDOWS\u005cFonts\u005cCandara.ttf
p2232
sg20
g21
sbag1
(g8
g3
NtRp2233
(dp2234
g11
g12
sg13
VFreestyle Script
p2235
sg15
I400
sg16
g12
sg17
g12
sg18
Vc:\u005cwindows\u005cfonts\u005cfreescpt.ttf
p2236
sg20
g21
sbag1
(g8
g3
NtRp2237
(dp2238
g11
g45
sg13
VBodoni MT
p2239
sg15
I400
sg16
g191
sg17
g12
sg18
Vc:\u005cwindows\u005cfonts\u005cbod_ci.ttf
p2240
sg20
g21
sbag1
(g8
g3
NtRp2241
(dp2242
g11
g12
sg13
VGill Sans Ultra Bold
p2243
sg15
I700
sg16
g12
sg17
g12
sg18
Vc:\u005cwindows\u005cfonts\u005cgilsanub.ttf
p2244
sg20
g21
sbag1
(g8
g3
NtRp2245
(dp2246
g11
g12
sg13
VGreekC
p2247
sg15
I400
sg16
g12
sg17
g12
sg18
VC:\u005cWINDOWS\u005cFonts\u005cgreekc__.ttf
p2248
sg20
g21
sbag1
(g8
g3
NtRp2249
(dp2250
g11
g12
sg13
VGigi
p2251
sg15
I400
sg16
g12
sg17
g12
sg18
Vc:\u005cwindows\u005cfonts\u005cgigi.ttf
p2252
sg20
g21
sbag1
(g8
g3
NtRp2253
(dp2254
g11
g12
sg13
VTempus Sans ITC
p2255
sg15
I400
sg16
g12
sg17
g12
sg18
Vc:\u005cwindows\u005cfonts\u005ctempsitc.ttf
p2256
sg20
g21
sbag1
(g8
g3
NtRp2257
(dp2258
g11
g12
sg13
VBodoni MT
p2259
sg15
I700
sg16
g12
sg17
g12
sg18
VC:\u005cWINDOWS\u005cFonts\u005cBOD_B.TTF
p2260
sg20
g21
sbag1
(g8
g3
NtRp2261
(dp2262
g11
g45
sg13
VET-SAMI
p2263
sg15
I700
sg16
g12
sg17
g12
sg18
VC:\u005cWINDOWS\u005cFonts\u005cETSAMIBI.TTF
p2264
sg20
g21
sbag1
(g8
g3
NtRp2265
(dp2266
g11
g12
sg13
VAGF - Ejji Tsihuf
p2267
sg15
I400
sg16
g12
sg17
g12
sg18
VC:\u005cWINDOWS\u005cFonts\u005cAgafari_Ejji_Tsihuf.ttf
p2268
sg20
g21
sbag1
(g8
g3
NtRp2269
(dp2270
g11
g12
sg13
VBaskerville Old Face
p2271
sg15
I400
sg16
g12
sg17
g12
sg18
VC:\u005cWINDOWS\u005cFonts\u005cBASKVILL.TTF
p2272
sg20
g21
sbag1
(g8
g3
NtRp2273
(dp2274
g11
g12
sg13
VWide Latin
p2275
sg15
I400
sg16
Vexpanded
p2276
sg17
g12
sg18
Vc:\u005cwindows\u005cfonts\u005clatinwd.ttf
p2277
sg20
g21
sbag1
(g8
g3
NtRp2278
(dp2279
g11
g12
sg13
VLucida Console
p2280
sg15
I400
sg16
g12
sg17
g12
sg18
Vc:\u005cwindows\u005cfonts\u005clucon.ttf
p2281
sg20
g21
sbag1
(g8
g3
NtRp2282
(dp2283
g11
g12
sg13
VHigh Tower Text
p2284
sg15
I400
sg16
g12
sg17
g12
sg18
Vc:\u005cwindows\u005cfonts\u005chtowert.ttf
p2285
sg20
g21
sbag1
(g8
g3
NtRp2286
(dp2287
g11
g12
sg13
VPapyrus
p2288
sg15
I400
sg16
g12
sg17
g12
sg18
Vc:\u005cwindows\u005cfonts\u005cpapyrus.ttf
p2289
sg20
g21
sbag1
(g8
g3
NtRp2290
(dp2291
g11
g45
sg13
VLucida Bright
p2292
sg15
I700
sg16
g12
sg17
g12
sg18
Vc:\u005cwindows\u005cfonts\u005clbritedi.ttf
p2293
sg20
g21
sbag1
(g8
g3
NtRp2294
(dp2295
g11
g45
sg13
VArial
p2296
sg15
I400
sg16
g191
sg17
g12
sg18
VC:\u005cWINDOWS\u005cFonts\u005cARIALNI.TTF
p2297
sg20
g21
sbag1
(g8
g3
NtRp2298
(dp2299
g11
g45
sg13
VBodoni MT
p2300
sg15
I400
sg16
g191
sg17
g12
sg18
VC:\u005cWINDOWS\u005cFonts\u005cBOD_CI.TTF
p2301
sg20
g21
sbag1
(g8
g3
NtRp2302
(dp2303
g11
g12
sg13
VPlaybill
p2304
sg15
I400
sg16
g12
sg17
g12
sg18
VC:\u005cWINDOWS\u005cFonts\u005cPLAYBILL.TTF
p2305
sg20
g21
sbag1
(g8
g3
NtRp2306
(dp2307
g11
g12
sg13
VElephant
p2308
sg15
I400
sg16
g12
sg17
g12
sg18
Vc:\u005cwindows\u005cfonts\u005celephnt.ttf
p2309
sg20
g21
sbag1
(g8
g3
NtRp2310
(dp2311
g11
g45
sg13
VCentury Schoolbook
p2312
sg15
I700
sg16
g12
sg17
g12
sg18
VC:\u005cWINDOWS\u005cFonts\u005cSCHLBKBI.TTF
p2313
sg20
g21
sbag1
(g8
g3
NtRp2314
(dp2315
g11
g12
sg13
VBradley Hand ITC
p2316
sg15
I400
sg16
g12
sg17
g12
sg18
VC:\u005cWINDOWS\u005cFonts\u005cBRADHITC.TTF
p2317
sg20
g21
sbag1
(g8
g3
NtRp2318
(dp2319
g11
g12
sg13
VArtifakt Element
p2320
sg15
I400
sg16
g12
sg17
g12
sg18
VC:\u005cWINDOWS\u005cFonts\u005cArtifakt Element Regular.ttf
p2321
sg20
g21
sbag1
(g8
g3
NtRp2322
(dp2323
g11
g12
sg13
VVG2000 Title
p2324
sg15
I400
sg16
g12
sg17
g12
sg18
VC:\u005cWINDOWS\u005cFonts\u005cVG2000T.TTF
p2325
sg20
g21
sbag1
(g8
g3
NtRp2326
(dp2327
g11
g12
sg13
VFranklin Gothic Demi Cond
p2328
sg15
I600
sg16
g191
sg17
g12
sg18
Vc:\u005cwindows\u005cfonts\u005cfradmcn.ttf
p2329
sg20
g21
sbag1
(g8
g3
NtRp2330
(dp2331
g11
g12
sg13
VNiagara Solid
p2332
sg15
I400
sg16
g12
sg17
g12
sg18
Vc:\u005cwindows\u005cfonts\u005cniagsol.ttf
p2333
sg20
g21
sbag1
(g8
g3
NtRp2334
(dp2335
g11
g12
sg13
VESRI IGL Font24
p2336
sg15
I400
sg16
g12
sg17
g12
sg18
VC:\u005cWINDOWS\u005cFonts\u005cesri_224.ttf
p2337
sg20
g21
sbag1
(g8
g3
NtRp2338
(dp2339
g11
g12
sg13
VAddis98
p2340
sg15
I400
sg16
g12
sg17
g12
sg18
Vc:\u005cwindows\u005cfonts\u005caddis98.ttf
p2341
sg20
g21
sbag1
(g8
g3
NtRp2342
(dp2343
g11
g12
sg13
VESRI Oil, Gas, & Water
p2344
sg15
I400
sg16
g12
sg17
g12
sg18
Vc:\u005cwindows\u005cfonts\u005cesri_4.ttf
p2345
sg20
g21
sbag1
(g8
g3
NtRp2346
(dp2347
g11
g12
sg13
VPristina
p2348
sg15
I400
sg16
g12
sg17
g12
sg18
VC:\u005cWINDOWS\u005cFonts\u005cPRISTINA.TTF
p2349
sg20
g21
sbag1
(g8
g3
NtRp2350
(dp2351
g11
g12
sg13
VBauhaus 93
p2352
sg15
I400
sg16
g12
sg17
g12
sg18
VC:\u005cWINDOWS\u005cFonts\u005cBAUHS93.TTF
p2353
sg20
g21
sbag1
(g8
g3
NtRp2354
(dp2355
g11
g12
sg13
VMV Boli
p2356
sg15
I400
sg16
g12
sg17
g12
sg18
VC:\u005cWINDOWS\u005cFonts\u005cmvboli.ttf
p2357
sg20
g21
sbag1
(g8
g3
NtRp2358
(dp2359
g11
g12
sg13
VET-Saba
p2360
sg15
I700
sg16
g12
sg17
g12
sg18
VC:\u005cWINDOWS\u005cFonts\u005cEtsabab.ttf
p2361
sg20
g21
sbag1
(g8
g3
NtRp2362
(dp2363
g11
g12
sg13
VVladimir Script
p2364
sg15
I400
sg16
g12
sg17
g12
sg18
VC:\u005cWINDOWS\u005cFonts\u005cVLADIMIR.TTF
p2365
sg20
g21
sbag1
(g8
g3
NtRp2366
(dp2367
g11
g12
sg13
VETHIOPIC
p2368
sg15
I700
sg16
g12
sg17
g12
sg18
Vc:\u005cwindows\u005cfonts\u005ceth-2.ttf
p2369
sg20
g21
sbag1
(g8
g3
NtRp2370
(dp2371
g11
g12
sg13
VCastellar
p2372
sg15
I400
sg16
g12
sg17
g12
sg18
VC:\u005cWINDOWS\u005cFonts\u005cCASTELAR.TTF
p2373
sg20
g21
sbag1
(g8
g3
NtRp2374
(dp2375
g11
g12
sg13
VESRI Caves 3
p2376
sg15
I400
sg16
g12
sg17
g12
sg18
Vc:\u005cwindows\u005cfonts\u005cesri_377.ttf
p2377
sg20
g21
sbag1
(g8
g3
NtRp2378
(dp2379
g11
g45
sg13
VPerpetua
p2380
sg15
I400
sg16
g12
sg17
g12
sg18
VC:\u005cWINDOWS\u005cFonts\u005cPERI____.TTF
p2381
sg20
g21
sbag1
(g8
g3
NtRp2382
(dp2383
g11
g45
sg13
VLucida Bright
p2384
sg15
I700
sg16
g12
sg17
g12
sg18
VC:\u005cWINDOWS\u005cFonts\u005cLBRITEDI.TTF
p2385
sg20
g21
sbag1
(g8
g3
NtRp2386
(dp2387
g11
g12
sg13
VRockwell
p2388
sg15
I400
sg16
g12
sg17
g12
sg18
Vc:\u005cwindows\u005cfonts\u005crock.ttf
p2389
sg20
g21
sbag1
(g8
g3
NtRp2390
(dp2391
g11
g12
sg13
VESRI US MUTCD 1
p2392
sg15
I400
sg16
g12
sg17
g12
sg18
Vc:\u005cwindows\u005cfonts\u005cesri_47.ttf
p2393
sg20
g21
sbag1
(g8
g3
NtRp2394
(dp2395
g11
g12
sg13
VScriptS
p2396
sg15
I400
sg16
g12
sg17
g12
sg18
Vc:\u005cwindows\u005cfonts\u005cscripts_.ttf
p2397
sg20
g21
sbag1
(g8
g3
NtRp2398
(dp2399
g11
g12
sg13
VDubai
p2400
sg15
I400
sg16
g12
sg17
g12
sg18
VC:\u005cWINDOWS\u005cFonts\u005cDUBAI-REGULAR.TTF
p2401
sg20
g21
sbag1
(g8
g3
NtRp2402
(dp2403
g11
g45
sg13
VLucida Sans
p2404
sg15
I700
sg16
g12
sg17
g12
sg18
Vc:\u005cwindows\u005cfonts\u005clsansdi.ttf
p2405
sg20
g21
sbag1
(g8
g3
NtRp2406
(dp2407
g11
g12
sg13
VESRI NIMA VMAP1&2 PT
p2408
sg15
I400
sg16
g12
sg17
g12
sg18
VC:\u005cWINDOWS\u005cFonts\u005cesri_14.ttf
p2409
sg20
g21
sbag1
(g8
g3
NtRp2410
(dp2411
g11
g12
sg13
VBerlin Sans FB
p2412
sg15
I700
sg16
g12
sg17
g12
sg18
Vc:\u005cwindows\u005cfonts\u005cbrlnsb.ttf
p2413
sg20
g21
sbag1
(g8
g3
NtRp2414
(dp2415
g11
g12
sg13
VTw Cen MT
p2416
sg15
I700
sg16
g12
sg17
g12
sg18
Vc:\u005cwindows\u005cfonts\u005ctcb_____.ttf
p2417
sg20
g21
sbag1
(g8
g3
NtRp2418
(dp2419
g11
g45
sg13
VRockwell
p2420
sg15
I700
sg16
g12
sg17
g12
sg18
Vc:\u005cwindows\u005cfonts\u005crockbi.ttf
p2421
sg20
g21
sbag1
(g8
g3
NtRp2422
(dp2423
g11
g45
sg13
VGoudy Old Style
p2424
sg15
I400
sg16
g12
sg17
g12
sg18
VC:\u005cWINDOWS\u005cFonts\u005cGOUDOSI.TTF
p2425
sg20
g21
sbag1
(g8
g3
NtRp2426
(dp2427
g11
g12
sg13
VGeezigna
p2428
sg15
I400
sg16
g12
sg17
g12
sg18
VC:\u005cWINDOWS\u005cFonts\u005cgeezenga.TTF
p2429
sg20
g21
sbag1
(g8
g3
NtRp2430
(dp2431
g11
g12
sg13
VFranklin Gothic Book
p2432
sg15
I400
sg16
g12
sg17
g12
sg18
VC:\u005cWINDOWS\u005cFonts\u005cFRABK.TTF
p2433
sg20
g21
sbag1
(g8
g3
NtRp2434
(dp2435
g11
g12
sg13
VCentury Gothic
p2436
sg15
I700
sg16
g12
sg17
g12
sg18
Vc:\u005cwindows\u005cfonts\u005cgothicb.ttf
p2437
sg20
g21
sbag1
(g8
g3
NtRp2438
(dp2439
g11
g12
sg13
VGoudy Old Style
p2440
sg15
I400
sg16
g12
sg17
g12
sg18
Vc:\u005cwindows\u005cfonts\u005cgoudos.ttf
p2441
sg20
g21
sbag1
(g8
g3
NtRp2442
(dp2443
g11
g12
sg13
VInformal Roman
p2444
sg15
I500
sg16
g12
sg17
g12
sg18
VC:\u005cWINDOWS\u005cFonts\u005cINFROMAN.TTF
p2445
sg20
g21
sbag1
(g8
g3
NtRp2446
(dp2447
g11
g12
sg13
VGill Sans Ultra Bold
p2448
sg15
I700
sg16
g12
sg17
g12
sg18
VC:\u005cWINDOWS\u005cFonts\u005cGILSANUB.TTF
p2449
sg20
g21
sbag1
(g8
g3
NtRp2450
(dp2451
g11
g12
sg13
VESRI US Forestry 1
p2452
sg15
I400
sg16
g12
sg17
g12
sg18
VC:\u005cWINDOWS\u005cFonts\u005cesri_651.ttf
p2453
sg20
g21
sbag1
(g8
g3
NtRp2454
(dp2455
g11
g12
sg13
VLeelawadee
p2456
sg15
I700
sg16
g12
sg17
g12
sg18
VC:\u005cWINDOWS\u005cFonts\u005cLEELAWDB.TTF
p2457
sg20
g21
sbag1
(g8
g3
NtRp2458
(dp2459
g11
g12
sg13
VEngravers MT
p2460
sg15
I400
sg16
g12
sg17
g12
sg18
VC:\u005cWINDOWS\u005cFonts\u005cENGR.TTF
p2461
sg20
g21
sbag1
(g8
g3
NtRp2462
(dp2463
g11
g45
sg13
VCandara
p2464
sg15
I400
sg16
g12
sg17
g12
sg18
VC:\u005cWINDOWS\u005cFonts\u005cCandarai.ttf
p2465
sg20
g21
sbag1
(g8
g3
NtRp2466
(dp2467
g11
g12
sg13
VMicrosoft Uighur
p2468
sg15
I400
sg16
g12
sg17
g12
sg18
Vc:\u005cwindows\u005cfonts\u005cmsuighur.ttf
p2469
sg20
g21
sbag1
(g8
g3
NtRp2470
(dp2471
g11
g12
sg13
VESRI Climate & Precipitation
p2472
sg15
I400
sg16
g12
sg17
g12
sg18
VC:\u005cWINDOWS\u005cFonts\u005cesri_33.ttf
p2473
sg20
g21
sbag1
(g8
g3
NtRp2474
(dp2475
g11
g12
sg13
VMS Outlook
p2476
sg15
I400
sg16
g12
sg17
g12
sg18
VC:\u005cWINDOWS\u005cFonts\u005cOUTLOOK.TTF
p2477
sg20
g21
sbag1
(g8
g3
NtRp2478
(dp2479
g11
g45
sg13
VArtifakt Element
p2480
sg15
I400
sg16
g12
sg17
g12
sg18
VC:\u005cWINDOWS\u005cFonts\u005cArtifakt Element Italic.ttf
p2481
sg20
g21
sbag1
(g8
g3
NtRp2482
(dp2483
g11
g12
sg13
VWingdings 3
p2484
sg15
I400
sg16
g12
sg17
g12
sg18
VC:\u005cWINDOWS\u005cFonts\u005cWINGDNG3.TTF
p2485
sg20
g21
sbag1
(g8
g3
NtRp2486
(dp2487
g11
g12
sg13
VHaettenschweiler
p2488
sg15
I400
sg16
g12
sg17
g12
sg18
VC:\u005cWINDOWS\u005cFonts\u005cHATTEN.TTF
p2489
sg20
g21
sbag1
(g8
g3
NtRp2490
(dp2491
g11
g12
sg13
VAlgerian
p2492
sg15
I400
sg16
g12
sg17
g12
sg18
Vc:\u005cwindows\u005cfonts\u005calger.ttf
p2493
sg20
g21
sbag1
(g8
g3
NtRp2494
(dp2495
g11
g12
sg13
VMatura MT Script Capitals
p2496
sg15
I400
sg16
g12
sg17
g12
sg18
Vc:\u005cwindows\u005cfonts\u005cmaturasc.ttf
p2497
sg20
g21
sbag1
(g8
g3
NtRp2498
(dp2499
g11
g12
sg13
VStencil
p2500
sg15
I400
sg16
g12
sg17
g12
sg18
VC:\u005cWINDOWS\u005cFonts\u005cSTENCIL.TTF
p2501
sg20
g21
sbag1
(g8
g3
NtRp2502
(dp2503
g11
g12
sg13
VLucida Sans Typewriter
p2504
sg15
I400
sg16
g12
sg17
g12
sg18
Vc:\u005cwindows\u005cfonts\u005cltype.ttf
p2505
sg20
g21
sbag1
(g8
g3
NtRp2506
(dp2507
g11
g12
sg13
VBookman Old Style
p2508
sg15
I400
sg16
g12
sg17
g12
sg18
VC:\u005cWINDOWS\u005cFonts\u005cBOOKOS.TTF
p2509
sg20
g21
sbag1
(g8
g3
NtRp2510
(dp2511
g11
g12
sg13
VBerlin Sans FB Demi
p2512
sg15
I700
sg16
g12
sg17
g12
sg18
Vc:\u005cwindows\u005cfonts\u005cbrlnsdb.ttf
p2513
sg20
g21
sbag1
(g8
g3
NtRp2514
(dp2515
g11
g12
sg13
VArial
p2516
sg15
I400
sg16
g191
sg17
g12
sg18
Vc:\u005cwindows\u005cfonts\u005carialn.ttf
p2517
sg20
g21
sbag1
(g8
g3
NtRp2518
(dp2519
g11
g12
sg13
VPalace Script MT
p2520
sg15
I400
sg16
g12
sg17
g12
sg18
Vc:\u005cwindows\u005cfonts\u005cpalscri.ttf
p2521
sg20
g21
sbag1
(g8
g3
NtRp2522
(dp2523
g11
g12
sg13
VCentury Gothic
p2524
sg15
I400
sg16
g12
sg17
g12
sg18
Vc:\u005cwindows\u005cfonts\u005cgothic.ttf
p2525
sg20
g21
sbag1
(g8
g3
NtRp2526
(dp2527
g11
g12
sg13
VCopperplate Gothic Light
p2528
sg15
I200
sg16
g12
sg17
g12
sg18
VC:\u005cWINDOWS\u005cFonts\u005cCOPRGTL.TTF
p2529
sg20
g21
sbag1
(g8
g3
NtRp2530
(dp2531
g11
g45
sg13
VSegoe UI
p2532
sg15
I400
sg16
g12
sg17
g12
sg18
Vc:\u005cwindows\u005cfonts\u005cseguili.ttf
p2533
sg20
g21
sbag1
(g8
g3
NtRp2534
(dp2535
g11
g12
sg13
VPristina
p2536
sg15
I400
sg16
g12
sg17
g12
sg18
Vc:\u005cwindows\u005cfonts\u005cpristina.ttf
p2537
sg20
g21
sbag1
(g8
g3
NtRp2538
(dp2539
g11
g12
sg13
VAMGDT
p2540
sg15
I400
sg16
g12
sg17
g12
sg18
VC:\u005cWINDOWS\u005cFonts\u005cAMGDT___.ttf
p2541
sg20
g21
sbag1
(g8
g3
NtRp2542
(dp2543
g11
g12
sg13
VESRI Commodities
p2544
sg15
I400
sg16
g12
sg17
g12
sg18
VC:\u005cWINDOWS\u005cFonts\u005cesri_406.ttf
p2545
sg20
g21
sbag1
(g8
g3
NtRp2546
(dp2547
g11
g12
sg13
VESRI NIMA DNC PT
p2548
sg15
I400
sg16
g12
sg17
g12
sg18
Vc:\u005cwindows\u005cfonts\u005cesri_12.ttf
p2549
sg20
g21
sbag1
(g8
g3
NtRp2550
(dp2551
g11
g12
sg13
VESRI Pipeline US 1
p2552
sg15
I400
sg16
g12
sg17
g12
sg18
Vc:\u005cwindows\u005cfonts\u005cesri_161.ttf
p2553
sg20
g21
sbag1
(g8
g3
NtRp2554
(dp2555
g11
g12
sg13
VCalisto MT
p2556
sg15
I400
sg16
g12
sg17
g12
sg18
VC:\u005cWINDOWS\u005cFonts\u005cCALIST.TTF
p2557
sg20
g21
sbag1
(g8
g3
NtRp2558
(dp2559
g11
g45
sg13
VLucida Fax
p2560
sg15
I400
sg16
g12
sg17
g12
sg18
Vc:\u005cwindows\u005cfonts\u005clfaxi.ttf
p2561
sg20
g21
sbag1
(g8
g3
NtRp2562
(dp2563
g11
g12
sg13
VESRI Cartography
p2564
sg15
I400
sg16
g12
sg17
g12
sg18
Vc:\u005cwindows\u005cfonts\u005cesri_1.ttf
p2565
sg20
g21
sbag1
(g8
g3
NtRp2566
(dp2567
g11
g12
sg13
VFranklin Gothic Heavy
p2568
sg15
I800
sg16
g12
sg17
g12
sg18
Vc:\u005cwindows\u005cfonts\u005cfrahv.ttf
p2569
sg20
g21
sbag1
(g8
g3
NtRp2570
(dp2571
g11
g12
sg13
VSwis721 BT
p2572
sg15
I700
sg16
g12
sg17
g12
sg18
Vc:\u005cwindows\u005cfonts\u005cswissb.ttf
p2573
sg20
g21
sbag1
(g8
g3
NtRp2574
(dp2575
g11
g12
sg13
VSuperFrench
p2576
sg15
I400
sg16
g12
sg17
g12
sg18
Vc:\u005cwindows\u005cfonts\u005csupef___.ttf
p2577
sg20
g21
sbag1
(g8
g3
NtRp2578
(dp2579
g11
g12
sg13
VLeelawadee
p2580
sg15
I700
sg16
g12
sg17
g12
sg18
Vc:\u005cwindows\u005cfonts\u005cleelawdb.ttf
p2581
sg20
g21
sbag1
(g8
g3
NtRp2582
(dp2583
g11
g12
sg13
VBook Antiqua
p2584
sg15
I400
sg16
g12
sg17
g12
sg18
Vc:\u005cwindows\u005cfonts\u005cbkant.ttf
p2585
sg20
g21
sbag1
(g8
g3
NtRp2586
(dp2587
g11
g12
sg13
VESRI Mil2525C Modifiers
p2588
sg15
I400
sg16
g12
sg17
g12
sg18
VC:\u005cWINDOWS\u005cFonts\u005cesri_27Mcr_2.ttf
p2589
sg20
g21
sbag1
(g8
g3
NtRp2590
(dp2591
g11
g12
sg13
VET-NCI
p2592
sg15
I400
sg16
g12
sg17
g12
sg18
VC:\u005cWINDOWS\u005cFonts\u005cETNCIN.TTF
p2593
sg20
g21
sbag1
(g8
g3
NtRp2594
(dp2595
g11
g45
sg13
VConsolas
p2596
sg15
I400
sg16
g12
sg17
g12
sg18
Vc:\u005cwindows\u005cfonts\u005cconsolai.ttf
p2597
sg20
g21
sbag1
(g8
g3
NtRp2598
(dp2599
g11
g12
sg13
VMS Reference Specialty
p2600
sg15
I400
sg16
g12
sg17
g12
sg18
Vc:\u005cwindows\u005cfonts\u005crefspcl.ttf
p2601
sg20
g21
sbag1
(g8
g3
NtRp2602
(dp2603
g11
g45
sg13
VLucida Fax
p2604
sg15
I700
sg16
g12
sg17
g12
sg18
VC:\u005cWINDOWS\u005cFonts\u005cLFAXDI.TTF
p2605
sg20
g21
sbag1
(g8
g3
NtRp2606
(dp2607
g11
g45
sg13
VRage Italic
p2608
sg15
I400
sg16
g12
sg17
g12
sg18
Vc:\u005cwindows\u005cfonts\u005crage.ttf
p2609
sg20
g21
sbag1
(g8
g3
NtRp2610
(dp2611
g11
g45
sg13
VGoudy Old Style
p2612
sg15
I400
sg16
g12
sg17
g12
sg18
Vc:\u005cwindows\u005cfonts\u005cgoudosi.ttf
p2613
sg20
g21
sbag1
(g8
g3
NtRp2614
(dp2615
g11
g12
sg13
VOnyx
p2616
sg15
I400
sg16
g12
sg17
g12
sg18
VC:\u005cWINDOWS\u005cFonts\u005cONYX.TTF
p2617
sg20
g21
sbag1
(g8
g3
NtRp2618
(dp2619
g11
g45
sg13
VBook Antiqua
p2620
sg15
I400
sg16
g12
sg17
g12
sg18
Vc:\u005cwindows\u005cfonts\u005cantquai.ttf
p2621
sg20
g21
sbag1
(g8
g3
NtRp2622
(dp2623
g11
g12
sg13
VDubai
p2624
sg15
I500
sg16
g12
sg17
g12
sg18
Vc:\u005cwindows\u005cfonts\u005cdubai-medium.ttf
p2625
sg20
g21
sbag1
(g8
g3
NtRp2626
(dp2627
g11
g12
sg13
VLucida Bright
p2628
sg15
I400
sg16
g12
sg17
g12
sg18
Vc:\u005cwindows\u005cfonts\u005clbrite.ttf
p2629
sg20
g21
sbag1
(g8
g3
NtRp2630
(dp2631
g11
g12
sg13
VSwis721 Cn BT
p2632
sg15
I400
sg16
g191
sg17
g12
sg18
Vc:\u005cwindows\u005cfonts\u005cswissc.ttf
p2633
sg20
g21
sbag1
(g8
g3
NtRp2634
(dp2635
g11
g45
sg13
VSegoe UI
p2636
sg15
I400
sg16
g12
sg17
g12
sg18
Vc:\u005cwindows\u005cfonts\u005csegoeuii.ttf
p2637
sg20
g21
sbag1
(g8
g3
NtRp2638
(dp2639
g11
g12
sg13
VFrench Script MT
p2640
sg15
I400
sg16
g12
sg17
g12
sg18
Vc:\u005cwindows\u005cfonts\u005cfrscript.ttf
p2641
sg20
g21
sbag1
(g8
g3
NtRp2642
(dp2643
g11
g12
sg13
VMT Extra
p2644
sg15
I400
sg16
g12
sg17
g12
sg18
VC:\u005cWINDOWS\u005cFonts\u005cMTEXTRA.TTF
p2645
sg20
g21
sbag1
(g8
g3
NtRp2646
(dp2647
g11
g12
sg13
VNiagara Engraved
p2648
sg15
I400
sg16
g12
sg17
g12
sg18
VC:\u005cWINDOWS\u005cFonts\u005cNIAGENG.TTF
p2649
sg20
g21
sbag1
(g8
g3
NtRp2650
(dp2651
g11
g12
sg13
VAGF - Dawit
p2652
sg15
I400
sg16
g12
sg17
g12
sg18
Vc:\u005cwindows\u005cfonts\u005cagafari_dawit.ttf
p2653
sg20
g21
sbag1
(g8
g3
NtRp2654
(dp2655
g11
g45
sg13
VFranklin Gothic Book
p2656
sg15
I400
sg16
g12
sg17
g12
sg18
VC:\u005cWINDOWS\u005cFonts\u005cFRABKIT.TTF
p2657
sg20
g21
sbag1
(g8
g3
NtRp2658
(dp2659
g11
g12
sg13
VLucida Sans Typewriter
p2660
sg15
I700
sg16
g12
sg17
g12
sg18
VC:\u005cWINDOWS\u005cFonts\u005cLTYPEB.TTF
p2661
sg20
g21
sbag1
(g8
g3
NtRp2662
(dp2663
g11
g12
sg13
VBodoni MT
p2664
sg15
I900
sg16
g12
sg17
g12
sg18
Vc:\u005cwindows\u005cfonts\u005cbod_blar.ttf
p2665
sg20
g21
sbag1
(g8
g3
NtRp2666
(dp2667
g11
g45
sg13
VSwis721 Cn BT
p2668
sg15
I400
sg16
g191
sg17
g12
sg18
Vc:\u005cwindows\u005cfonts\u005cswissci.ttf
p2669
sg20
g21
sbag1
(g8
g3
NtRp2670
(dp2671
g11
g12
sg13
VSegoe UI
p2672
sg15
I400
sg16
g12
sg17
g12
sg18
VC:\u005cWINDOWS\u005cFonts\u005csegoeuil.ttf
p2673
sg20
g21
sbag1
(g8
g3
NtRp2674
(dp2675
g11
g12
sg13
VSegoe Script
p2676
sg15
I400
sg16
g12
sg17
g12
sg18
VC:\u005cWINDOWS\u005cFonts\u005csegoesc.ttf
p2677
sg20
g21
sbag1
(g8
g3
NtRp2678
(dp2679
g11
g12
sg13
VMalgun Gothic
p2680
sg15
I400
sg16
g12
sg17
g12
sg18
VC:\u005cWINDOWS\u005cFonts\u005cmalgun.ttf
p2681
sg20
g21
sbag1
(g8
g3
NtRp2682
(dp2683
g11
g12
sg13
VGill Sans MT Condensed
p2684
sg15
I400
sg16
g191
sg17
g12
sg18
Vc:\u005cwindows\u005cfonts\u005cgilc____.ttf
p2685
sg20
g21
sbag1
(g8
g3
NtRp2686
(dp2687
g11
g12
sg13
VAGF - Yigezu Bisrat
p2688
sg15
I400
sg16
g12
sg17
g12
sg18
Vc:\u005cwindows\u005cfonts\u005cagafari_yigezu_bisrat.ttf
p2689
sg20
g21
sbag1
(g8
g3
NtRp2690
(dp2691
g11
g45
sg13
VArtifakt Element
p2692
sg15
I700
sg16
g12
sg17
g12
sg18
Vc:\u005cwindows\u005cfonts\u005cartifakt element bold italic.ttf
p2693
sg20
g21
sbag1
(g8
g3
NtRp2694
(dp2695
g11
g12
sg13
VLeelawadee UI
p2696
sg15
I400
sg16
g12
sg17
g12
sg18
VC:\u005cWINDOWS\u005cFonts\u005cLeelawUI.ttf
p2697
sg20
g21
sbag1
(g8
g3
NtRp2698
(dp2699
g11
g12
sg13
VESRI Enviro Hazard Analysis
p2700
sg15
I400
sg16
g12
sg17
g12
sg18
Vc:\u005cwindows\u005cfonts\u005cesri_801.ttf
p2701
sg20
g21
sbag1
(g8
g3
NtRp2702
(dp2703
g11
g12
sg13
VMistral
p2704
sg15
I400
sg16
g12
sg17
g12
sg18
Vc:\u005cwindows\u005cfonts\u005cmistral.ttf
p2705
sg20
g21
sbag1
(g8
g3
NtRp2706
(dp2707
g11
g45
sg13
VLucida Sans
p2708
sg15
I700
sg16
g12
sg17
g12
sg18
VC:\u005cWINDOWS\u005cFonts\u005cLSANSDI.TTF
p2709
sg20
g21
sbag1
(g8
g3
NtRp2710
(dp2711
g11
g45
sg13
VComic Sans MS
p2712
sg15
I700
sg16
g12
sg17
g12
sg18
VC:\u005cWINDOWS\u005cFonts\u005ccomicz.ttf
p2713
sg20
g21
sbag1
(g8
g3
NtRp2714
(dp2715
g11
g12
sg13
VAlgerian
p2716
sg15
I400
sg16
g12
sg17
g12
sg18
VC:\u005cWINDOWS\u005cFonts\u005cALGER.TTF
p2717
sg20
g21
sbag1
(g8
g3
NtRp2718
(dp2719
g11
g12
sg13
VRockwell Condensed
p2720
sg15
I400
sg16
g191
sg17
g12
sg18
Vc:\u005cwindows\u005cfonts\u005crocc____.ttf
p2721
sg20
g21
sbag1
(g8
g3
NtRp2722
(dp2723
g11
g45
sg13
VSwis721 BT
p2724
sg15
I400
sg16
g12
sg17
g12
sg18
VC:\u005cWINDOWS\u005cFonts\u005cswissi.ttf
p2725
sg20
g21
sbag1
(g8
g3
NtRp2726
(dp2727
g11
g12
sg13
VSwis721 BlkEx BT
p2728
sg15
I900
sg16
g12
sg17
g12
sg18
VC:\u005cWINDOWS\u005cFonts\u005cswissek.ttf
p2729
sg20
g21
sbag1
(g8
g3
NtRp2730
(dp2731
g11
g12
sg13
VComic Sans MS
p2732
sg15
I400
sg16
g12
sg17
g12
sg18
VC:\u005cWINDOWS\u005cFonts\u005ccomic.ttf
p2733
sg20
g21
sbag1
(g8
g3
NtRp2734
(dp2735
g11
g12
sg13
VProxy 8
p2736
sg15
I400
sg16
g12
sg17
g12
sg18
VC:\u005cWINDOWS\u005cFonts\u005cmtproxy8.ttf
p2737
sg20
g21
sbag1
(g8
g3
NtRp2738
(dp2739
g11
g45
sg13
VCentury Gothic
p2740
sg15
I400
sg16
g12
sg17
g12
sg18
VC:\u005cWINDOWS\u005cFonts\u005cGOTHICI.TTF
p2741
sg20
g21
sbag1
(g8
g3
NtRp2742
(dp2743
g11
g12
sg13
VESRI SDS 1.95 1
p2744
sg15
I400
sg16
g12
sg17
g12
sg18
Vc:\u005cwindows\u005cfonts\u005cesri_130.ttf
p2745
sg20
g21
sbag1
(g8
g3
NtRp2746
(dp2747
g11
g45
sg13
VHarlow Solid Italic
p2748
sg15
I400
sg16
g12
sg17
g12
sg18
VC:\u005cWINDOWS\u005cFonts\u005cHARLOWSI.TTF
p2749
sg20
g21
sbag1
(g8
g3
NtRp2750
(dp2751
g11
g12
sg13
VTw Cen MT Condensed
p2752
sg15
I400
sg16
g191
sg17
g12
sg18
Vc:\u005cwindows\u005cfonts\u005ctccm____.ttf
p2753
sg20
g21
sbag1
(g8
g3
NtRp2754
(dp2755
g11
g45
sg13
VCandara
p2756
sg15
I400
sg16
g12
sg17
g12
sg18
Vc:\u005cwindows\u005cfonts\u005ccandarai.ttf
p2757
sg20
g21
sbag1
(g8
g3
NtRp2758
(dp2759
g11
g12
sg13
VET-NEBAR2000
p2760
sg15
I400
sg16
g12
sg17
g12
sg18
Vc:\u005cwindows\u005cfonts\u005cetnebar2.ttf
p2761
sg20
g21
sbag1
(g8
g3
NtRp2762
(dp2763
g11
g12
sg13
VESRI SDS 2.00 2
p2764
sg15
I400
sg16
g12
sg17
g12
sg18
Vc:\u005cwindows\u005cfonts\u005cesri_133.ttf
p2765
sg20
g21
sbag1
(g8
g3
NtRp2766
(dp2767
g11
g12
sg13
VISOCP3
p2768
sg15
I400
sg16
g12
sg17
g12
sg18
VC:\u005cWINDOWS\u005cFonts\u005cisocp3__.ttf
p2769
sg20
g21
sbag1
(g8
g3
NtRp2770
(dp2771
g11
g12
sg13
VProxy 7
p2772
sg15
I400
sg16
g12
sg17
g12
sg18
VC:\u005cWINDOWS\u005cFonts\u005cmtproxy7.ttf
p2773
sg20
g21
sbag1
(g8
g3
NtRp2774
(dp2775
g11
g12
sg13
VESRI Caves 2
p2776
sg15
I400
sg16
g12
sg17
g12
sg18
VC:\u005cWINDOWS\u005cFonts\u005cesri_376.ttf
p2777
sg20
g21
sbag1
(g8
g3
NtRp2778
(dp2779
g11
g12
sg13
VPapyrus
p2780
sg15
I400
sg16
g12
sg17
g12
sg18
VC:\u005cWINDOWS\u005cFonts\u005cPAPYRUS.TTF
p2781
sg20
g21
sbag1
(g8
g3
NtRp2782
(dp2783
g11
g12
sg13
VPerpetua
p2784
sg15
I400
sg16
g12
sg17
g12
sg18
Vc:\u005cwindows\u005cfonts\u005cper_____.ttf
p2785
sg20
g21
sbag1
(g8
g3
NtRp2786
(dp2787
g11
g12
sg13
VGill Sans Ultra Bold Condensed
p2788
sg15
I700
sg16
g191
sg17
g12
sg18
VC:\u005cWINDOWS\u005cFonts\u005cGILLUBCD.TTF
p2789
sg20
g21
sbag1
(g8
g3
NtRp2790
(dp2791
g11
g12
sg13
VSimplex
p2792
sg15
I400
sg16
g12
sg17
g12
sg18
VC:\u005cWINDOWS\u005cFonts\u005csimplex_.ttf
p2793
sg20
g21
sbag1
(g8
g3
NtRp2794
(dp2795
g11
g12
sg13
VMS Mincho
p2796
sg15
I400
sg16
g12
sg17
g12
sg18
VC:\u005cWINDOWS\u005cFonts\u005cMSMINCHO.TTF
p2797
sg20
g21
sbag1
(g8
g3
NtRp2798
(dp2799
g11
g45
sg13
VVivaldi
p2800
sg15
I400
sg16
g12
sg17
g12
sg18
Vc:\u005cwindows\u005cfonts\u005cvivaldii.ttf
p2801
sg20
g21
sbag1
(g8
g3
NtRp2802
(dp2803
g11
g12
sg13
VGoudy Stout
p2804
sg15
I400
sg16
g12
sg17
g12
sg18
VC:\u005cWINDOWS\u005cFonts\u005cGOUDYSTO.TTF
p2805
sg20
g21
sbag1
(g8
g3
NtRp2806
(dp2807
g11
g12
sg13
VBookman Old Style
p2808
sg15
I400
sg16
g12
sg17
g12
sg18
Vc:\u005cwindows\u005cfonts\u005cbookos.ttf
p2809
sg20
g21
sbag1
(g8
g3
NtRp2810
(dp2811
g11
g12
sg13
VArtifakt Element
p2812
sg15
I700
sg16
g12
sg17
g12
sg18
Vc:\u005cwindows\u005cfonts\u005cartifakt element bold.ttf
p2813
sg20
g21
sbag1
(g8
g3
NtRp2814
(dp2815
g11
g12
sg13
VMaiandra GD
p2816
sg15
I400
sg16
g12
sg17
g12
sg18
VC:\u005cWINDOWS\u005cFonts\u005cMAIAN.TTF
p2817
sg20
g21
sbag1
(g8
g3
NtRp2818
(dp2819
g11
g12
sg13
VCalifornian FB
p2820
sg15
I700
sg16
g12
sg17
g12
sg18
Vc:\u005cwindows\u005cfonts\u005ccalifb.ttf
p2821
sg20
g21
sbag1
(g8
g3
NtRp2822
(dp2823
g11
g12
sg13
VPerpetua
p2824
sg15
I700
sg16
g12
sg17
g12
sg18
Vc:\u005cwindows\u005cfonts\u005cperb____.ttf
p2825
sg20
g21
sbag1
(g8
g3
NtRp2826
(dp2827
g11
g45
sg13
VMonospac821 BT
p2828
sg15
I400
sg16
g12
sg17
g12
sg18
Vc:\u005cwindows\u005cfonts\u005cmonosi.ttf
p2829
sg20
g21
sbag1
(g8
g3
NtRp2830
(dp2831
g11
g45
sg13
VArial
p2832
sg15
I700
sg16
g191
sg17
g12
sg18
Vc:\u005cwindows\u005cfonts\u005carialnbi.ttf
p2833
sg20
g21
sbag1
(g8
g3
NtRp2834
(dp2835
g11
g12
sg13
VBodoni MT
p2836
sg15
I700
sg16
g191
sg17
g12
sg18
Vc:\u005cwindows\u005cfonts\u005cbod_cb.ttf
p2837
sg20
g21
sbag1
(g8
g3
NtRp2838
(dp2839
g11
g12
sg13
VParchment
p2840
sg15
I400
sg16
g12
sg17
g12
sg18
Vc:\u005cwindows\u005cfonts\u005cparchm.ttf
p2841
sg20
g21
sbag1
(g8
g3
NtRp2842
(dp2843
g11
g45
sg13
VHarlow Solid Italic
p2844
sg15
I400
sg16
g12
sg17
g12
sg18
Vc:\u005cwindows\u005cfonts\u005charlowsi.ttf
p2845
sg20
g21
sbag1
(g8
g3
NtRp2846
(dp2847
g11
g45
sg13
VET-NCI
p2848
sg15
I400
sg16
g12
sg17
g12
sg18
Vc:\u005cwindows\u005cfonts\u005cetncini.ttf
p2849
sg20
g21
sbag1
(g8
g3
NtRp2850
(dp2851
g11
g12
sg13
VCentury Schoolbook
p2852
sg15
I400
sg16
g12
sg17
g12
sg18
VC:\u005cWINDOWS\u005cFonts\u005cCENSCBK.TTF
p2853
sg20
g21
sbag1
(g8
g3
NtRp2854
(dp2855
g11
g45
sg13
VElephant
p2856
sg15
I400
sg16
g12
sg17
g12
sg18
VC:\u005cWINDOWS\u005cFonts\u005cELEPHNTI.TTF
p2857
sg20
g21
sbag1
(g8
g3
NtRp2858
(dp2859
g11
g45
sg13
VET-NCI
p2860
sg15
I400
sg16
g12
sg17
g12
sg18
VC:\u005cWINDOWS\u005cFonts\u005cETNCINI.TTF
p2861
sg20
g21
sbag1
(g8
g3
NtRp2862
(dp2863
g11
g12
sg13
VShowcard Gothic
p2864
sg15
I400
sg16
g12
sg17
g12
sg18
Vc:\u005cwindows\u005cfonts\u005cshowg.ttf
p2865
sg20
g21
sbag1
(g8
g3
NtRp2866
(dp2867
g11
g45
sg13
VArial
p2868
sg15
I400
sg16
g191
sg17
g12
sg18
Vc:\u005cwindows\u005cfonts\u005carialni.ttf
p2869
sg20
g21
sbag1
(g8
g3
NtRp2870
(dp2871
g11
g12
sg13
VLucida Sans
p2872
sg15
I400
sg16
g12
sg17
g12
sg18
VC:\u005cWINDOWS\u005cFonts\u005cLSANS.TTF
p2873
sg20
g21
sbag1
(g8
g3
NtRp2874
(dp2875
g11
g12
sg13
VAGF - Zemen
p2876
sg15
I400
sg16
g12
sg17
g12
sg18
VC:\u005cWINDOWS\u005cFonts\u005cAgafari_Zemen.ttf
p2877
sg20
g21
sbag1
(g8
g3
NtRp2878
(dp2879
g11
g12
sg13
VElephant
p2880
sg15
I400
sg16
g12
sg17
g12
sg18
VC:\u005cWINDOWS\u005cFonts\u005cELEPHNT.TTF
p2881
sg20
g21
sbag1
(g8
g3
NtRp2882
(dp2883
g11
g45
sg13
VCentury Gothic
p2884
sg15
I400
sg16
g12
sg17
g12
sg18
Vc:\u005cwindows\u005cfonts\u005cgothici.ttf
p2885
sg20
g21
sbag1
(g8
g3
NtRp2886
(dp2887
g11
g12
sg13
VSegoe UI
p2888
sg15
I700
sg16
g12
sg17
g12
sg18
VC:\u005cWINDOWS\u005cFonts\u005csegoeuib.ttf
p2889
sg20
g21
sbag1
(g8
g3
NtRp2890
(dp2891
g11
g12
sg13
VEbrima
p2892
sg15
I400
sg16
g12
sg17
g12
sg18
VC:\u005cWINDOWS\u005cFonts\u005cebrima.ttf
p2893
sg20
g21
sbag1
(g8
g3
NtRp2894
(dp2895
g11
g12
sg13
VOCR A Extended
p2896
sg15
I400
sg16
g12
sg17
g12
sg18
VC:\u005cWINDOWS\u005cFonts\u005cOCRAEXT.TTF
p2897
sg20
g21
sbag1
(g8
g3
NtRp2898
(dp2899
g11
g12
sg13
VTempus Sans ITC
p2900
sg15
I400
sg16
g12
sg17
g12
sg18
VC:\u005cWINDOWS\u005cFonts\u005cTEMPSITC.TTF
p2901
sg20
g21
sbag1
(g8
g3
NtRp2902
(dp2903
g11
g12
sg13
VSymap
p2904
sg15
I400
sg16
g12
sg17
g12
sg18
VC:\u005cWINDOWS\u005cFonts\u005csymap___.ttf
p2905
sg20
g21
sbag1
(g8
g3
NtRp2906
(dp2907
g11
g12
sg13
VCalifornian FB
p2908
sg15
I700
sg16
g12
sg17
g12
sg18
VC:\u005cWINDOWS\u005cFonts\u005cCALIFB.TTF
p2909
sg20
g21
sbag1
(g8
g3
NtRp2910
(dp2911
g11
g12
sg13
VDubai
p2912
sg15
I200
sg16
g12
sg17
g12
sg18
VC:\u005cWINDOWS\u005cFonts\u005cDUBAI-LIGHT.TTF
p2913
sg20
g21
sbag1
(g8
g3
NtRp2914
(dp2915
g11
g12
sg13
VET-SAMI
p2916
sg15
I700
sg16
g12
sg17
g12
sg18
VC:\u005cWINDOWS\u005cFonts\u005cETSAMIB.TTF
p2917
sg20
g21
sbag1
(g8
g3
NtRp2918
(dp2919
g11
g12
sg13
VEras Light ITC
p2920
sg15
I200
sg16
g12
sg17
g12
sg18
VC:\u005cWINDOWS\u005cFonts\u005cERASLGHT.TTF
p2921
sg20
g21
sbag1
(g8
g3
NtRp2922
(dp2923
g11
g12
sg13
VForte
p2924
sg15
I400
sg16
g12
sg17
g12
sg18
Vc:\u005cwindows\u005cfonts\u005cforte.ttf
p2925
sg20
g21
sbag1
(g8
g3
NtRp2926
(dp2927
g11
g12
sg13
VMistral
p2928
sg15
I400
sg16
g12
sg17
g12
sg18
VC:\u005cWINDOWS\u005cFonts\u005cMISTRAL.TTF
p2929
sg20
g21
sbag1
(g8
g3
NtRp2930
(dp2931
g11
g12
sg13
VStencil
p2932
sg15
I400
sg16
g12
sg17
g12
sg18
Vc:\u005cwindows\u005cfonts\u005cstencil.ttf
p2933
sg20
g21
sbag1
(g8
g3
NtRp2934
(dp2935
g11
g12
sg13
VSnap ITC
p2936
sg15
I400
sg16
g12
sg17
g12
sg18
Vc:\u005cwindows\u005cfonts\u005csnap____.ttf
p2937
sg20
g21
sbag1
(g8
g3
NtRp2938
(dp2939
g11
g45
sg13
VCandara
p2940
sg15
I700
sg16
g12
sg17
g12
sg18
Vc:\u005cwindows\u005cfonts\u005ccandaraz.ttf
p2941
sg20
g21
sbag1
(g8
g3
NtRp2942
(dp2943
g11
g12
sg13
VEdwardian Script ITC
p2944
sg15
I400
sg16
g12
sg17
g12
sg18
Vc:\u005cwindows\u005cfonts\u005citcedscr.ttf
p2945
sg20
g21
sbag1
(g8
g3
NtRp2946
(dp2947
g11
g12
sg13
VET-SAMI
p2948
sg15
I700
sg16
g12
sg17
g12
sg18
Vc:\u005cwindows\u005cfonts\u005cetsamib.ttf
p2949
sg20
g21
sbag1
(g8
g3
NtRp2950
(dp2951
g11
g12
sg13
VMicrosoft PhagsPa
p2952
sg15
I700
sg16
g12
sg17
g12
sg18
VC:\u005cWINDOWS\u005cFonts\u005cphagspab.ttf
p2953
sg20
g21
sbag1
(g8
g3
NtRp2954
(dp2955
g11
g12
sg13
VBell MT
p2956
sg15
I700
sg16
g12
sg17
g12
sg18
VC:\u005cWINDOWS\u005cFonts\u005cBELLB.TTF
p2957
sg20
g21
sbag1
(g8
g3
NtRp2958
(dp2959
g11
g12
sg13
VAddis98
p2960
sg15
I400
sg16
g12
sg17
g12
sg18
VC:\u005cWINDOWS\u005cFonts\u005cAddis98.TTF
p2961
sg20
g21
sbag1
(g8
g3
NtRp2962
(dp2963
g11
g12
sg13
VLucida Sans Typewriter
p2964
sg15
I400
sg16
g12
sg17
g12
sg18
VC:\u005cWINDOWS\u005cFonts\u005cLTYPE.TTF
p2965
sg20
g21
sbag1
(g8
g3
NtRp2966
(dp2967
g11
g12
sg13
VGaramond
p2968
sg15
I700
sg16
g12
sg17
g12
sg18
VC:\u005cWINDOWS\u005cFonts\u005cGARABD.TTF
p2969
sg20
g21
sbag1
(g8
g3
NtRp2970
(dp2971
g11
g12
sg13
VBernard MT Condensed
p2972
sg15
I400
sg16
g191
sg17
g12
sg18
VC:\u005cWINDOWS\u005cFonts\u005cBERNHC.TTF
p2973
sg20
g21
sbag1
(g8
g3
NtRp2974
(dp2975
g11
g12
sg13
VVG2 Agazian
p2976
sg15
I900
sg16
g12
sg17
g12
sg18
Vc:\u005cwindows\u005cfonts\u005cvg2ag.ttf
p2977
sg20
g21
sbag1
(g8
g3
NtRp2978
(dp2979
g11
g12
sg13
VEras Medium ITC
p2980
sg15
I500
sg16
g12
sg17
g12
sg18
VC:\u005cWINDOWS\u005cFonts\u005cERASMD.TTF
p2981
sg20
g21
sbag1
(g8
g3
NtRp2982
(dp2983
g11
g12
sg13
VDubai
p2984
sg15
I500
sg16
g12
sg17
g12
sg18
VC:\u005cWINDOWS\u005cFonts\u005cDUBAI-MEDIUM.TTF
p2985
sg20
g21
sbag1
(g8
g3
NtRp2986
(dp2987
g11
g45
sg13
VBodoni MT
p2988
sg15
I900
sg16
g12
sg17
g12
sg18
VC:\u005cWINDOWS\u005cFonts\u005cBOD_BLAI.TTF
p2989
sg20
g21
sbag1
(g8
g3
NtRp2990
(dp2991
g11
g12
sg13
VAGF - Yigezu Bisrat
p2992
sg15
I400
sg16
g12
sg17
g12
sg18
VC:\u005cWINDOWS\u005cFonts\u005cAgafari_Yigezu_Bisrat.ttf
p2993
sg20
g21
sbag1
(g8
g3
NtRp2994
(dp2995
g11
g12
sg13
VNiagara Engraved
p2996
sg15
I400
sg16
g12
sg17
g12
sg18
Vc:\u005cwindows\u005cfonts\u005cniageng.ttf
p2997
sg20
g21
sbag1
(g8
g3
NtRp2998
(dp2999
g11
g12
sg13
VHarrington
p3000
sg15
I400
sg16
g12
sg17
g12
sg18
VC:\u005cWINDOWS\u005cFonts\u005cHARNGTON.TTF
p3001
sg20
g21
sbag1
(g8
g3
NtRp3002
(dp3003
g11
g12
sg13
VESRI Meteorological 01
p3004
sg15
I400
sg16
g12
sg17
g12
sg18
Vc:\u005cwindows\u005cfonts\u005cesri_105.ttf
p3005
sg20
g21
sbag1
(g8
g3
NtRp3006
(dp3007
g11
g12
sg13
VArtifakt Element
p3008
sg15
I400
sg16
g12
sg17
g12
sg18
Vc:\u005cwindows\u005cfonts\u005cartifakt element regular.ttf
p3009
sg20
g21
sbag1
(g8
g3
NtRp3010
(dp3011
g11
g12
sg13
VLucida Sans
p3012
sg15
I700
sg16
g12
sg17
g12
sg18
Vc:\u005cwindows\u005cfonts\u005clsansd.ttf
p3013
sg20
g21
sbag1
(g8
g3
NtRp3014
(dp3015
g11
g12
sg13
VGadugi
p3016
sg15
I700
sg16
g12
sg17
g12
sg18
Vc:\u005cwindows\u005cfonts\u005cgadugib.ttf
p3017
sg20
g21
sbag1
(g8
g3
NtRp3018
(dp3019
g11
g12
sg13
VESRI SDS 2.00 1
p3020
sg15
I400
sg16
g12
sg17
g12
sg18
Vc:\u005cwindows\u005cfonts\u005cesri_132.ttf
p3021
sg20
g21
sbag1
(g8
g3
NtRp3022
(dp3023
g11
g12
sg13
VNirmala UI
p3024
sg15
I200
sg16
g12
sg17
g12
sg18
VC:\u005cWINDOWS\u005cFonts\u005cNirmalaS.ttf
p3025
sg20
g21
sbag1
(g8
g3
NtRp3026
(dp3027
g11
g12
sg13
VNiagara Solid
p3028
sg15
I400
sg16
g12
sg17
g12
sg18
VC:\u005cWINDOWS\u005cFonts\u005cNIAGSOL.TTF
p3029
sg20
g21
sbag1
(g8
g3
NtRp3030
(dp3031
g11
g12
sg13
VBroadway
p3032
sg15
I400
sg16
g12
sg17
g12
sg18
VC:\u005cWINDOWS\u005cFonts\u005cBROADW.TTF
p3033
sg20
g21
sbag1
(g8
g3
NtRp3034
(dp3035
g11
g45
sg13
VLucida Bright
p3036
sg15
I400
sg16
g12
sg17
g12
sg18
Vc:\u005cwindows\u005cfonts\u005clbritei.ttf
p3037
sg20
g21
sbag1
(g8
g3
NtRp3038
(dp3039
g11
g12
sg13
VGe'ez-2
p3040
sg15
I400
sg16
g12
sg17
g12
sg18
VC:\u005cWINDOWS\u005cFonts\u005cGeez2.ttf
p3041
sg20
g21
sbag1
(g8
g3
NtRp3042
(dp3043
g11
g45
sg13
VHigh Tower Text
p3044
sg15
I400
sg16
g12
sg17
g12
sg18
Vc:\u005cwindows\u005cfonts\u005chtowerti.ttf
p3045
sg20
g21
sbag1
(g8
g3
NtRp3046
(dp3047
g11
g12
sg13
VBerlin Sans FB
p3048
sg15
I700
sg16
g12
sg17
g12
sg18
VC:\u005cWINDOWS\u005cFonts\u005cBRLNSB.TTF
p3049
sg20
g21
sbag1
(g8
g3
NtRp3050
(dp3051
g11
g12
sg13
VKristen ITC
p3052
sg15
I400
sg16
g12
sg17
g12
sg18
Vc:\u005cwindows\u005cfonts\u005citckrist.ttf
p3053
sg20
g21
sbag1
(g8
g3
NtRp3054
(dp3055
g11
g12
sg13
VLucida Bright
p3056
sg15
I700
sg16
g12
sg17
g12
sg18
Vc:\u005cwindows\u005cfonts\u005clbrited.ttf
p3057
sg20
g21
sbag1
(g8
g3
NtRp3058
(dp3059
g11
g28
sg13
VEuroRoman
p3060
sg15
I500
sg16
g12
sg17
g12
sg18
VC:\u005cWINDOWS\u005cFonts\u005ceurro___.ttf
p3061
sg20
g21
sbag1
(g8
g3
NtRp3062
(dp3063
g11
g12
sg13
VPower Geez Unicode3
p3064
sg15
I400
sg16
g12
sg17
g12
sg18
Vc:\u005cwindows\u005cfonts\u005cpgunicode3.ttf
p3065
sg20
g21
sbag1
(g8
g3
NtRp3066
(dp3067
g11
g12
sg13
VVisual Geez Unicode
p3068
sg15
I400
sg16
g12
sg17
g12
sg18
VC:\u005cWINDOWS\u005cFonts\u005cVGUnicode.TTF
p3069
sg20
g21
sbag1
(g8
g3
NtRp3070
(dp3071
g11
g45
sg13
VBookman Old Style
p3072
sg15
I700
sg16
g12
sg17
g12
sg18
VC:\u005cWINDOWS\u005cFonts\u005cBOOKOSBI.TTF
p3073
sg20
g21
sbag1
(g8
g3
NtRp3074
(dp3075
g11
g12
sg13
VHigh Tower Text
p3076
sg15
I400
sg16
g12
sg17
g12
sg18
VC:\u005cWINDOWS\u005cFonts\u005cHTOWERT.TTF
p3077
sg20
g21
sbag1
(g8
g3
NtRp3078
(dp3079
g11
g12
sg13
VProxy 3
p3080
sg15
I400
sg16
g12
sg17
g12
sg18
Vc:\u005cwindows\u005cfonts\u005cmtproxy3.ttf
p3081
sg20
g21
sbag1
(g8
g3
NtRp3082
(dp3083
g11
g12
sg13
VBradley Hand ITC
p3084
sg15
I400
sg16
g12
sg17
g12
sg18
Vc:\u005cwindows\u005cfonts\u005cbradhitc.ttf
p3085
sg20
g21
sbag1
(g8
g3
NtRp3086
(dp3087
g11
g12
sg13
VRavie
p3088
sg15
I400
sg16
g12
sg17
g12
sg18
VC:\u005cWINDOWS\u005cFonts\u005cRAVIE.TTF
p3089
sg20
g21
sbag1
(g8
g3
NtRp3090
(dp3091
g11
g12
sg13
VArial
p3092
sg15
I400
sg16
g191
sg17
g12
sg18
VC:\u005cWINDOWS\u005cFonts\u005cARIALN.TTF
p3093
sg20
g21
sbag1
(g8
g3
NtRp3094
(dp3095
g11
g12
sg13
VALXethiopian
p3096
sg15
I400
sg16
g12
sg17
g12
sg18
VC:\u005cWINDOWS\u005cFonts\u005cALXETHIO.TTF
p3097
sg20
g21
sbag1
(g8
g3
NtRp3098
(dp3099
g11
g12
sg13
VET-Saba New
p3100
sg15
I400
sg16
g12
sg17
g12
sg18
Vc:\u005cwindows\u005cfonts\u005cetsabanw.ttf
p3101
sg20
g21
sbag1
(g8
g3
NtRp3102
(dp3103
g11
g12
sg13
VBodoni MT
p3104
sg15
I700
sg16
g191
sg17
g12
sg18
VC:\u005cWINDOWS\u005cFonts\u005cBOD_CB.TTF
p3105
sg20
g21
sbag1
(g8
g3
NtRp3106
(dp3107
g11
g12
sg13
VET-NCI
p3108
sg15
I400
sg16
g12
sg17
g12
sg18
Vc:\u005cwindows\u005cfonts\u005cetncin.ttf
p3109
sg20
g21
sbag1
(g8
g3
NtRp3110
(dp3111
g11
g12
sg13
VVG2000 Agazian
p3112
sg15
I900
sg16
g12
sg17
g12
sg18
VC:\u005cWINDOWS\u005cFonts\u005cVG2000A.TTF
p3113
sg20
g21
sbag1
(g8
g3
NtRp3114
(dp3115
g11
g12
sg13
VEdwardian Script ITC
p3116
sg15
I400
sg16
g12
sg17
g12
sg18
VC:\u005cWINDOWS\u005cFonts\u005cITCEDSCR.TTF
p3117
sg20
g21
sbag1
(g8
g3
NtRp3118
(dp3119
g11
g12
sg13
VVladimir Script
p3120
sg15
I400
sg16
g12
sg17
g12
sg18
Vc:\u005cwindows\u005cfonts\u005cvladimir.ttf
p3121
sg20
g21
sbag1
(g8
g3
NtRp3122
(dp3123
g11
g12
sg13
VEras Bold ITC
p3124
sg15
I700
sg16
g12
sg17
g12
sg18
Vc:\u005cwindows\u005cfonts\u005cerasbd.ttf
p3125
sg20
g21
sbag1
(g8
g3
NtRp3126
(dp3127
g11
g12
sg13
VCandara
p3128
sg15
I700
sg16
g12
sg17
g12
sg18
VC:\u005cWINDOWS\u005cFonts\u005cCandarab.ttf
p3129
sg20
g21
sbag1
(g8
g3
NtRp3130
(dp3131
g11
g12
sg13
VBookshelf Symbol 7
p3132
sg15
I400
sg16
g12
sg17
g12
sg18
Vc:\u005cwindows\u005cfonts\u005cbssym7.ttf
p3133
sg20
g21
sbag1
(g8
g3
NtRp3134
(dp3135
g11
g12
sg13
VHoloLens MDL2 Assets
p3136
sg15
I400
sg16
g12
sg17
g12
sg18
VC:\u005cWINDOWS\u005cFonts\u005cholomdl2.ttf
p3137
sg20
g21
sbag1
(g8
g3
NtRp3138
(dp3139
g11
g12
sg13
VMicrosoft Uighur
p3140
sg15
I700
sg16
g12
sg17
g12
sg18
VC:\u005cWINDOWS\u005cFonts\u005cMSUIGHUB.TTF
p3141
sg20
g21
sbag1
(g8
g3
NtRp3142
(dp3143
g11
g12
sg13
VGe'ez-1
p3144
sg15
I400
sg16
g12
sg17
g12
sg18
Vc:\u005cwindows\u005cfonts\u005cgeez1.ttf
p3145
sg20
g21
sbag1
(g8
g3
NtRp3146
(dp3147
g11
g12
sg13
VMonotype Corsiva
p3148
sg15
I400
sg16
g12
sg17
g12
sg18
VC:\u005cWINDOWS\u005cFonts\u005cMTCORSVA.TTF
p3149
sg20
g21
sbag1
(g8
g3
NtRp3150
(dp3151
g11
g12
sg13
VGoudy Old Style
p3152
sg15
I400
sg16
g12
sg17
g12
sg18
VC:\u005cWINDOWS\u005cFonts\u005cGOUDOS.TTF
p3153
sg20
g21
sbag1
(g8
g3
NtRp3154
(dp3155
g11
g12
sg13
VESRI NIMA City Graphic PT
p3156
sg15
I400
sg16
g12
sg17
g12
sg18
VC:\u005cWINDOWS\u005cFonts\u005cesri_16.ttf
p3157
sg20
g21
sbag1
(g8
g3
NtRp3158
(dp3159
g11
g45
sg13
VLucida Handwriting
p3160
sg15
I400
sg16
g12
sg17
g12
sg18
Vc:\u005cwindows\u005cfonts\u005clhandw.ttf
p3161
sg20
g21
sbag1
(g8
g3
NtRp3162
(dp3163
g11
g12
sg13
VFranklin Gothic Demi
p3164
sg15
I600
sg16
g12
sg17
g12
sg18
VC:\u005cWINDOWS\u005cFonts\u005cFRADM.TTF
p3165
sg20
g21
sbag1
(g8
g3
NtRp3166
(dp3167
g11
g12
sg13
VRockwell Extra Bold
p3168
sg15
I700
sg16
g12
sg17
g12
sg18
Vc:\u005cwindows\u005cfonts\u005crockeb.ttf
p3169
sg20
g21
sbag1
(g8
g3
NtRp3170
(dp3171
g11
g45
sg13
VBookman Old Style
p3172
sg15
I400
sg16
g12
sg17
g12
sg18
VC:\u005cWINDOWS\u005cFonts\u005cBOOKOSI.TTF
p3173
sg20
g21
sbag1
(g8
g3
NtRp3174
(dp3175
g11
g28
sg13
VLucida Sans Typewriter
p3176
sg15
I700
sg16
g12
sg17
g12
sg18
VC:\u005cWINDOWS\u005cFonts\u005cLTYPEBO.TTF
p3177
sg20
g21
sbag1
(g8
g3
NtRp3178
(dp3179
g11
g12
sg13
VGe'ez-3
p3180
sg15
I400
sg16
g12
sg17
g12
sg18
VC:\u005cWINDOWS\u005cFonts\u005cGeez3.ttf
p3181
sg20
g21
sbag1
(g8
g3
NtRp3182
(dp3183
g11
g45
sg13
VGaramond
p3184
sg15
I400
sg16
g12
sg17
g12
sg18
VC:\u005cWINDOWS\u005cFonts\u005cGARAIT.TTF
p3185
sg20
g21
sbag1
(g8
g3
NtRp3186
(dp3187
g11
g12
sg13
VPlaybill
p3188
sg15
I400
sg16
g12
sg17
g12
sg18
Vc:\u005cwindows\u005cfonts\u005cplaybill.ttf
p3189
sg20
g21
sbag1
(g8
g3
NtRp3190
(dp3191
g11
g12
sg13
VLucida Sans Typewriter
p3192
sg15
I700
sg16
g12
sg17
g12
sg18
Vc:\u005cwindows\u005cfonts\u005cltypeb.ttf
p3193
sg20
g21
sbag1
(g8
g3
NtRp3194
(dp3195
g11
g12
sg13
VGaramond
p3196
sg15
I400
sg16
g12
sg17
g12
sg18
VC:\u005cWINDOWS\u005cFonts\u005cGARA.TTF
p3197
sg20
g21
sbag1
(g8
g3
NtRp3198
(dp3199
g11
g45
sg13
VCalifornian FB
p3200
sg15
I400
sg16
g12
sg17
g12
sg18
VC:\u005cWINDOWS\u005cFonts\u005cCALIFI.TTF
p3201
sg20
g21
sbag1
(g8
g3
NtRp3202
(dp3203
g11
g12
sg13
VBodoni MT
p3204
sg15
I400
sg16
g12
sg17
g12
sg18
Vc:\u005cwindows\u005cfonts\u005cbod_r.ttf
p3205
sg20
g21
sbag1
(g8
g3
NtRp3206
(dp3207
g11
g12
sg13
VMS Reference Sans Serif
p3208
sg15
I400
sg16
g12
sg17
g12
sg18
VC:\u005cWINDOWS\u005cFonts\u005cREFSAN.TTF
p3209
sg20
g21
sbag1
(g8
g3
NtRp3210
(dp3211
g11
g12
sg13
VBodoni MT
p3212
sg15
I400
sg16
g12
sg17
g12
sg18
Vc:\u005cwindows\u005cfonts\u005cbod_pstc.ttf
p3213
sg20
g21
sbag1
(g8
g3
NtRp3214
(dp3215
g11
g12
sg13
VCentaur
p3216
sg15
I400
sg16
g12
sg17
g12
sg18
VC:\u005cWINDOWS\u005cFonts\u005cCENTAUR.TTF
p3217
sg20
g21
sbag1
(g8
g3
NtRp3218
(dp3219
g11
g12
sg13
VLucida Sans
p3220
sg15
I700
sg16
g12
sg17
g12
sg18
VC:\u005cWINDOWS\u005cFonts\u005cLSANSD.TTF
p3221
sg20
g21
sbag1
(g8
g3
NtRp3222
(dp3223
g11
g12
sg13
VWide Latin
p3224
sg15
I400
sg16
g2276
sg17
g12
sg18
VC:\u005cWINDOWS\u005cFonts\u005cLATINWD.TTF
p3225
sg20
g21
sbag1
(g8
g3
NtRp3226
(dp3227
g11
g12
sg13
VDubai
p3228
sg15
I700
sg16
g12
sg17
g12
sg18
VC:\u005cWINDOWS\u005cFonts\u005cDUBAI-BOLD.TTF
p3229
sg20
g21
sbag1
(g8
g3
NtRp3230
(dp3231
g11
g12
sg13
VGabriola
p3232
sg15
I400
sg16
g12
sg17
g12
sg18
Vc:\u005cwindows\u005cfonts\u005cgabriola.ttf
p3233
sg20
g21
sbag1
(g8
g3
NtRp3234
(dp3235
g11
g12
sg13
VImprint MT Shadow
p3236
sg15
I400
sg16
g12
sg17
g12
sg18
VC:\u005cWINDOWS\u005cFonts\u005cIMPRISHA.TTF
p3237
sg20
g21
sbag1
(g8
g3
NtRp3238
(dp3239
g11
g12
sg13
VVG2000 Main
p3240
sg15
I400
sg16
g12
sg17
g12
sg18
VC:\u005cWINDOWS\u005cFonts\u005cVG2000M.TTF
p3241
sg20
g21
sbag1
(g8
g3
NtRp3242
(dp3243
g11
g12
sg13
VET-NEBAR
p3244
sg15
I700
sg16
g12
sg17
g12
sg18
VC:\u005cWINDOWS\u005cFonts\u005cETNEBARB.TTF
p3245
sg20
g21
sbag1
(g8
g3
NtRp3246
(dp3247
g11
g12
sg13
VFootlight MT Light
p3248
sg15
I200
sg16
g12
sg17
g12
sg18
VC:\u005cWINDOWS\u005cFonts\u005cFTLTLT.TTF
p3249
sg20
g21
sbag1
(g8
g3
NtRp3250
(dp3251
g11
g45
sg13
VPerpetua
p3252
sg15
I700
sg16
g12
sg17
g12
sg18
Vc:\u005cwindows\u005cfonts\u005cperbi___.ttf
p3253
sg20
g21
sbag1
(g8
g3
NtRp3254
(dp3255
g11
g45
sg13
VPalatino Linotype
p3256
sg15
I700
sg16
g12
sg17
g12
sg18
Vc:\u005cwindows\u005cfonts\u005cpalabi.ttf
p3257
sg20
g21
sbag1
(g8
g3
NtRp3258
(dp3259
g11
g12
sg13
VRavie
p3260
sg15
I400
sg16
g12
sg17
g12
sg18
Vc:\u005cwindows\u005cfonts\u005cravie.ttf
p3261
sg20
g21
sbag1
(g8
g3
NtRp3262
(dp3263
g11
g12
sg13
VCommercialPi BT
p3264
sg15
I400
sg16
g12
sg17
g12
sg18
VC:\u005cWINDOWS\u005cFonts\u005ccompi.ttf
p3265
sg20
g21
sbag1
(g8
g3
NtRp3266
(dp3267
g11
g12
sg13
VLeelawadee UI
p3268
sg15
I400
sg16
g12
sg17
g12
sg18
Vc:\u005cwindows\u005cfonts\u005cleelawui.ttf
p3269
sg20
g21
sbag1
(g8
g3
NtRp3270
(dp3271
g11
g12
sg13
VEras Demi ITC
p3272
sg15
I600
sg16
g12
sg17
g12
sg18
Vc:\u005cwindows\u005cfonts\u005cerasdemi.ttf
p3273
sg20
g21
sbag1
(g8
g3
NtRp3274
(dp3275
g11
g12
sg13
VBook Antiqua
p3276
sg15
I400
sg16
g12
sg17
g12
sg18
VC:\u005cWINDOWS\u005cFonts\u005cBKANT.TTF
p3277
sg20
g21
sbag1
(g8
g3
NtRp3278
(dp3279
g11
g12
sg13
VVG Geez Numbers
p3280
sg15
I400
sg16
g12
sg17
g12
sg18
VC:\u005cWINDOWS\u005cFonts\u005cVgn.ttf
p3281
sg20
g21
sbag1
(g8
g3
NtRp3282
(dp3283
g11
g12
sg13
VScript MT Bold
p3284
sg15
I700
sg16
g12
sg17
g12
sg18
Vc:\u005cwindows\u005cfonts\u005cscriptbl.ttf
p3285
sg20
g21
sbag1
(g8
g3
NtRp3286
(dp3287
g11
g12
sg13
VMatura MT Script Capitals
p3288
sg15
I400
sg16
g12
sg17
g12
sg18
VC:\u005cWINDOWS\u005cFonts\u005cMATURASC.TTF
p3289
sg20
g21
sbag1
(g8
g3
NtRp3290
(dp3291
g11
g45
sg13
VCalisto MT
p3292
sg15
I700
sg16
g12
sg17
g12
sg18
Vc:\u005cwindows\u005cfonts\u005ccalistbi.ttf
p3293
sg20
g21
sbag1
(g8
g3
NtRp3294
(dp3295
g11
g12
sg13
VOld English Text MT
p3296
sg15
I400
sg16
g12
sg17
g12
sg18
Vc:\u005cwindows\u005cfonts\u005coldengl.ttf
p3297
sg20
g21
sbag1
(g8
g3
NtRp3298
(dp3299
g11
g12
sg13
VVG2000 Agazian
p3300
sg15
I900
sg16
g12
sg17
g12
sg18
Vc:\u005cwindows\u005cfonts\u005cvg2000a.ttf
p3301
sg20
g21
sbag1
(g8
g3
NtRp3302
(dp3303
g11
g12
sg13
VESRI Arrowhead
p3304
sg15
I400
sg16
g12
sg17
g12
sg18
VC:\u005cWINDOWS\u005cFonts\u005cesri_144.ttf
p3305
sg20
g21
sbag1
(g8
g3
NtRp3306
(dp3307
g11
g45
sg13
VArtifakt Element
p3308
sg15
I700
sg16
g12
sg17
g12
sg18
VC:\u005cWINDOWS\u005cFonts\u005cArtifakt Element Bold Italic.ttf
p3309
sg20
g21
sbag1
(g8
g3
NtRp3310
(dp3311
g11
g12
sg13
VBell MT
p3312
sg15
I700
sg16
g12
sg17
g12
sg18
Vc:\u005cwindows\u005cfonts\u005cbellb.ttf
p3313
sg20
g21
sbag1
(g8
g3
NtRp3314
(dp3315
g11
g12
sg13
VArial Rounded MT Bold
p3316
sg15
I700
sg16
g12
sg17
g12
sg18
Vc:\u005cwindows\u005cfonts\u005carlrdbd.ttf
p3317
sg20
g21
sbag1
(g8
g3
NtRp3318
(dp3319
g11
g12
sg13
VAmdtSymbols
p3320
sg15
I400
sg16
g12
sg17
g12
sg18
VC:\u005cWINDOWS\u005cFonts\u005cAMDT_Symbols.ttf
p3321
sg20
g21
sbag1
(g8
g3
NtRp3322
(dp3323
g11
g12
sg13
VBell MT
p3324
sg15
I400
sg16
g12
sg17
g12
sg18
VC:\u005cWINDOWS\u005cFonts\u005cBELL.TTF
p3325
sg20
g21
sbag1
(g8
g3
NtRp3326
(dp3327
g11
g12
sg13
VArial Unicode MS
p3328
sg15
I400
sg16
g12
sg17
g12
sg18
VC:\u005cWINDOWS\u005cFonts\u005cARIALUNI.TTF
p3329
sg20
g21
sbag1
(g8
g3
NtRp3330
(dp3331
g11
g12
sg13
VAMGDT
p3332
sg15
I400
sg16
g12
sg17
g12
sg18
Vc:\u005cwindows\u005cfonts\u005camgdt___.ttf
p3333
sg20
g21
sbag1
(g8
g3
NtRp3334
(dp3335
g11
g12
sg13
VPoor Richard
p3336
sg15
I400
sg16
g12
sg17
g12
sg18
Vc:\u005cwindows\u005cfonts\u005cpoorich.ttf
p3337
sg20
g21
sbag1
(g8
g3
NtRp3338
(dp3339
g11
g12
sg13
VNirmala UI
p3340
sg15
I700
sg16
g12
sg17
g12
sg18
Vc:\u005cwindows\u005cfonts\u005cnirmalab.ttf
p3341
sg20
g21
sbag1
(g8
g3
NtRp3342
(dp3343
g11
g45
sg13
VBodoni MT
p3344
sg15
I700
sg16
g191
sg17
g12
sg18
Vc:\u005cwindows\u005cfonts\u005cbod_cbi.ttf
p3345
sg20
g21
sbag1
(g8
g3
NtRp3346
(dp3347
g11
g12
sg13
VAGF - Rejim
p3348
sg15
I400
sg16
g12
sg17
g12
sg18
VC:\u005cWINDOWS\u005cFonts\u005cAgafari_Rejim.ttf
p3349
sg20
g21
sbag1
(g8
g3
NtRp3350
(dp3351
g11
g12
sg13
VBroadway
p3352
sg15
I400
sg16
g12
sg17
g12
sg18
Vc:\u005cwindows\u005cfonts\u005cbroadw.ttf
p3353
sg20
g21
sbasS'defaultFamily'
p3354
(dp3355
Vafm
p3356
VHelvetica
p3357
sVttf
p3358
VBitstream Vera Sans
p3359
ssS'ttffiles'
p3360
(lp3361
g19
ag25
ag30
ag34
ag38
ag42
ag47
ag51
ag55
ag59
ag63
ag67
ag71
ag75
ag79
ag83
ag87
ag91
ag95
ag99
ag103
ag107
ag111
ag115
ag119
ag123
ag127
ag131
ag135
ag139
ag143
ag147
ag151
ag155
ag159
ag163
ag167
ag171
ag175
ag179
ag183
ag187
ag192
ag196
ag200
ag204
ag208
ag212
ag216
ag220
ag224
ag228
ag232
ag236
ag240
ag244
ag248
ag252
ag256
ag260
ag264
ag268
ag272
ag276
ag280
ag284
ag288
ag292
ag296
ag300
ag304
ag308
ag312
ag316
ag320
ag324
ag328
ag332
ag336
ag340
ag344
ag348
ag352
ag356
ag360
ag364
ag368
ag372
ag376
ag380
ag384
ag388
ag392
ag396
ag400
ag404
ag408
ag412
ag416
ag420
ag424
ag428
ag432
ag436
ag440
ag444
ag448
ag452
ag456
ag460
ag464
ag468
ag472
ag476
ag480
ag484
ag488
ag492
ag496
ag500
ag504
ag508
ag512
ag516
ag520
ag524
ag528
ag532
ag536
ag540
ag544
ag548
ag552
ag556
ag560
ag564
ag568
ag572
ag576
ag580
ag584
ag588
ag592
ag596
ag600
ag604
ag608
ag612
ag616
ag620
ag624
ag628
ag632
ag636
ag640
ag644
ag648
ag652
ag656
ag660
ag664
ag668
ag672
ag676
ag680
ag684
ag688
ag692
aVc:\u005cwindows\u005cfonts\u005cswisski.ttf
p3362
ag696
ag700
ag704
ag708
ag712
ag716
ag720
ag724
ag728
ag732
ag736
ag740
ag744
ag748
ag752
ag756
ag760
ag764
ag768
ag772
ag776
ag780
ag784
ag788
ag792
ag796
ag800
ag804
ag808
ag812
ag816
ag820
ag824
ag828
ag832
ag836
ag840
ag844
ag848
ag852
aVc:\u005cwindows\u005cfonts\u005cesri_11.ttf
p3363
ag856
ag860
aVc:\u005cwindows\u005cfonts\u005cscriptc_.ttf
p3364
ag864
ag868
ag872
ag876
ag880
ag884
ag888
ag892
ag896
ag900
ag904
ag908
ag912
ag916
ag920
ag924
ag928
ag932
ag936
ag940
ag944
ag948
ag952
ag956
ag960
ag964
aVc:\u005cwindows\u005cfonts\u005cmtproxy4.ttf
p3365
ag968
ag972
ag976
ag980
ag984
aVc:\u005cwindows\u005cfonts\u005cswissbo.ttf
p3366
ag988
ag992
ag996
ag1000
aVc:\u005cwindows\u005cfonts\u005cesri_121.ttf
p3367
ag1004
ag1008
ag1012
ag1016
ag1020
ag1024
ag1028
ag1032
ag1036
ag1040
ag1044
ag1048
ag1052
ag1056
ag1060
ag1064
ag1068
ag1072
aVC:\u005cWINDOWS\u005cFonts\u005cromanc__.ttf
p3368
ag1076
aVC:\u005cWINDOWS\u005cFonts\u005ccambriai.ttf
p3369
ag1080
ag1084
ag1088
ag1092
ag1096
ag1100
ag1104
ag1108
ag1112
aVC:\u005cWINDOWS\u005cFonts\u005csyastro_.ttf
p3370
ag1116
ag1120
ag1124
ag1128
aVC:\u005cWINDOWS\u005cFonts\u005cromab___.ttf
p3371
ag1132
ag1136
ag1140
ag1144
ag1148
aVc:\u005cwindows\u005cfonts\u005cswisscb.ttf
p3372
ag1152
ag1156
aVc:\u005cwindows\u005cfonts\u005cmicross.ttf
p3373
ag1160
ag1164
ag1168
ag1172
aVC:\u005cWINDOWS\u005cFonts\u005cesri_800.ttf
p3374
ag1176
ag1180
ag1184
ag1188
ag1192
aVC:\u005cWINDOWS\u005cFonts\u005cgothice_.ttf
p3375
ag1196
ag1200
ag1204
ag1208
ag1212
ag1216
ag1220
ag1224
ag1228
ag1232
ag1236
ag1240
ag1244
ag1248
ag1252
ag1256
ag1260
aVC:\u005cWINDOWS\u005cFonts\u005cisoct3__.ttf
p3376
ag1264
ag1268
ag1272
aVC:\u005cWINDOWS\u005cFonts\u005cisocp2__.ttf
p3377
ag1276
ag1280
ag1284
ag1288
ag1292
ag1296
ag1300
ag1304
ag1308
ag1312
aVc:\u005cwindows\u005cfonts\u005ccalibrib.ttf
p3378
ag1316
aVC:\u005cWINDOWS\u005cFonts\u005csanssb__.ttf
p3379
ag1320
ag1324
ag1328
ag1332
ag1336
ag1340
ag1344
ag1348
ag1352
ag1356
ag1360
ag1364
aVc:\u005cwindows\u005cfonts\u005cesri_48.ttf
p3380
ag1368
ag1372
ag1376
ag1380
ag1384
ag1388
ag1392
ag1396
ag1400
ag1404
ag1408
aVC:\u005cWINDOWS\u005cFonts\u005cl_10646.ttf
p3381
ag1412
aVc:\u005cwindows\u005cfonts\u005cesri_405.ttf
p3382
ag1416
ag1420
ag1424
ag1428
aVc:\u005cwindows\u005cfonts\u005cjavatext.ttf
p3383
ag1432
ag1436
ag1440
ag1444
ag1448
ag1452
ag1456
ag1460
ag1464
ag1468
ag1472
ag1476
ag1480
aVc:\u005cwindows\u005cfonts\u005ctechb___.ttf
p3384
aVC:\u005cWINDOWS\u005cFonts\u005ctaile.ttf
p3385
aVc:\u005cwindows\u005cfonts\u005cesri_13.ttf
p3386
aVC:\u005cWINDOWS\u005cFonts\u005cesri_152.ttf
p3387
ag1484
aVC:\u005cWINDOWS\u005cFonts\u005cseguiemj.ttf
p3388
ag1488
ag1492
ag1496
ag1500
ag1504
ag1508
ag1512
ag1516
ag1520
ag1524
ag1528
ag1532
ag1536
ag1540
ag1544
ag1548
ag1552
ag1556
ag1560
ag1564
ag1568
ag1572
ag1576
ag1580
aVC:\u005cWINDOWS\u005cFonts\u005cphagspa.ttf
p3389
ag1584
ag1588
ag1592
ag1596
aVC:\u005cWINDOWS\u005cFonts\u005csymbol.ttf
p3390
aVc:\u005cwindows\u005cfonts\u005cesri_20.ttf
p3391
ag1600
ag1604
ag1608
ag1612
ag1616
aVC:\u005cWINDOWS\u005cFonts\u005cdutchi.ttf
p3392
ag1620
aVc:\u005cwindows\u005cfonts\u005ccalibril.ttf
p3393
ag1624
ag1628
aVC:\u005cWINDOWS\u005cFonts\u005cseguibl.ttf
p3394
aVC:\u005cWINDOWS\u005cFonts\u005cesri_2.ttf
p3395
ag1632
ag1636
ag1640
ag1644
ag1648
ag1652
aVC:\u005cWINDOWS\u005cFonts\u005cconstan.ttf
p3396
ag1656
ag1660
ag1664
ag1668
ag1672
ag1676
aVC:\u005cWINDOWS\u005cFonts\u005csegoepr.ttf
p3397
ag1680
aVC:\u005cWINDOWS\u005cFonts\u005ccityb___.ttf
p3398
ag1684
ag1688
ag1692
ag1696
ag1700
ag1704
ag1708
ag1712
ag1716
aVc:\u005cwindows\u005cfonts\u005csimsunb.ttf
p3399
ag1720
ag1724
ag1728
aVC:\u005cWINDOWS\u005cFonts\u005csymath__.ttf
p3400
ag1732
ag1736
ag1740
ag1744
ag1748
ag1752
ag1756
aVC:\u005cWINDOWS\u005cFonts\u005ctrebucbi.ttf
p3401
ag1760
ag1764
ag1768
ag1772
ag1776
ag1780
aVc:\u005cwindows\u005cfonts\u005ctimesbi.ttf
p3402
ag1784
ag1788
ag1792
ag1796
aVc:\u005cwindows\u005cfonts\u005cesri_23.ttf
p3403
aVc:\u005cwindows\u005cfonts\u005cesri_150.ttf
p3404
ag1800
ag1804
ag1808
ag1812
ag1816
aVc:\u005cwindows\u005cfonts\u005cmtproxy1.ttf
p3405
ag1820
aVC:\u005cWINDOWS\u005cFonts\u005cmonos.ttf
p3406
ag1824
aVC:\u005cWINDOWS\u005cFonts\u005ccomicbd.ttf
p3407
ag1828
ag1832
ag1836
ag1840
ag1844
aVc:\u005cwindows\u005cfonts\u005ccalibrili.ttf
p3408
aVC:\u005cWINDOWS\u005cFonts\u005cesri_131.ttf
p3409
ag1848
aVc:\u005cwindows\u005cfonts\u005cpalab.ttf
p3410
aVC:\u005cWINDOWS\u005cFonts\u005cverdanai.ttf
p3411
aVC:\u005cWINDOWS\u005cFonts\u005cesri_22.ttf
p3412
ag1852
ag1856
aVc:\u005cwindows\u005cfonts\u005cesri_7.ttf
p3413
ag1860
ag1864
ag1868
ag1872
aVC:\u005cWINDOWS\u005cFonts\u005cconstanz.ttf
p3414
aVC:\u005cWINDOWS\u005cFonts\u005cdutchbi.ttf
p3415
ag1876
ag1880
ag1884
ag1888
ag1892
ag1896
ag1900
ag1904
ag1908
aVC:\u005cWINDOWS\u005cFonts\u005cromantic.ttf
p3416
ag1912
ag1916
aVc:\u005cwindows\u005cfonts\u005cconstanb.ttf
p3417
ag1920
ag1924
ag1928
aVC:\u005cWINDOWS\u005cFonts\u005ceurr____.ttf
p3418
aVC:\u005cWINDOWS\u005cFonts\u005csymeteo_.ttf
p3419
ag1932
ag1936
aVC:\u005cWINDOWS\u005cFonts\u005ccorbelli.ttf
p3420
ag1940
ag1944
ag1948
ag1952
aVc:\u005cwindows\u005cfonts\u005ccomici.ttf
p3421
ag1956
ag1960
ag1964
ag1968
ag1972
ag1976
ag1980
ag1984
ag1988
ag1992
ag1996
ag2000
aVC:\u005cWINDOWS\u005cFonts\u005cstylu.ttf
p3422
ag2004
ag2008
ag2012
aVc:\u005cwindows\u005cfonts\u005cesri_400.ttf
p3423
aVC:\u005cWINDOWS\u005cFonts\u005cebrimabd.ttf
p3424
aVc:\u005cwindows\u005cfonts\u005cdutchb.ttf
p3425
ag2016
ag2020
aVC:\u005cWINDOWS\u005cFonts\u005cesri_151.ttf
p3426
aVC:\u005cWINDOWS\u005cFonts\u005ccounb___.ttf
p3427
ag2024
ag2028
ag2032
ag2036
ag2040
ag2044
aVc:\u005cwindows\u005cfonts\u005cswiss.ttf
p3428
ag2048
ag2052
ag2056
ag2060
aVc:\u005cwindows\u005cfonts\u005cmtproxy9.ttf
p3429
aVc:\u005cwindows\u005cfonts\u005cromai___.ttf
p3430
ag2064
aVC:\u005cWINDOWS\u005cFonts\u005citalict_.ttf
p3431
ag2068
ag2072
aVc:\u005cwindows\u005cfonts\u005cesri_17.ttf
p3432
ag2076
ag2080
ag2084
ag2088
ag2092
ag2096
ag2100
ag2104
ag2108
ag2112
aVc:\u005cwindows\u005cfonts\u005cromans__.ttf
p3433
ag2116
ag2120
ag2124
ag2128
ag2132
ag2136
aVC:\u005cWINDOWS\u005cFonts\u005cisocp___.ttf
p3434
ag2140
aVC:\u005cWINDOWS\u005cFonts\u005csylfaen.ttf
p3435
ag2144
ag2148
ag2152
aVC:\u005cWINDOWS\u005cFonts\u005cesri_803.ttf
p3436
ag2156
ag2160
ag2164
aVc:\u005cwindows\u005cfonts\u005cesri_9.ttf
p3437
ag2168
ag2172
ag2176
ag2180
ag2184
ag2188
aVC:\u005cWINDOWS\u005cFonts\u005cpalai.ttf
p3438
ag2192
aVc:\u005cwindows\u005cfonts\u005cesri_802.ttf
p3439
ag2196
ag2200
ag2204
ag2208
ag2212
ag2216
aVC:\u005cWINDOWS\u005cFonts\u005cseguisbi.ttf
p3440
aVc:\u005cwindows\u005cfonts\u005cetsami2.ttf
p3441
ag2220
aVC:\u005cWINDOWS\u005cFonts\u005cgdt_____.ttf
p3442
aVc:\u005cwindows\u005cfonts\u005ccomsc.ttf
p3443
ag2224
ag2228
ag2232
ag2236
ag2240
aVc:\u005cwindows\u005cfonts\u005cswisscli.ttf
p3444
ag2244
ag2248
ag2252
ag2256
ag2260
ag2264
ag2268
ag2272
aVc:\u005cwindows\u005cfonts\u005cvinet.ttf
p3445
ag2277
ag2281
ag2285
ag2289
ag2293
ag2297
ag2301
ag2305
ag2309
aVC:\u005cWINDOWS\u005cFonts\u005cmonotxt_.ttf
p3446
ag2313
aVC:\u005cWINDOWS\u005cFonts\u005cgeorgia.ttf
p3447
ag2317
aVc:\u005cwindows\u005cfonts\u005cariblk.ttf
p3448
ag2321
ag2325
ag2329
aVc:\u005cwindows\u005cfonts\u005cconsolaz.ttf
p3449
ag2333
aVC:\u005cWINDOWS\u005cFonts\u005ctxt_____.ttf
p3450
aVC:\u005cWINDOWS\u005cFonts\u005cswissel.ttf
p3451
ag2337
aVC:\u005cWINDOWS\u005cFonts\u005cgothicg_.ttf
p3452
ag2341
aVC:\u005cWINDOWS\u005cFonts\u005cseguisb.ttf
p3453
ag2345
aVc:\u005cwindows\u005cfonts\u005cesri_804.ttf
p3454
aVC:\u005cWINDOWS\u005cFonts\u005cesri_159.ttf
p3455
ag2349
ag2353
ag2357
ag2361
ag2365
aVC:\u005cWINDOWS\u005cFonts\u005cconsola.ttf
p3456
ag2369
ag2373
aVC:\u005cWINDOWS\u005cFonts\u005cgreeks__.ttf
p3457
ag2377
ag2381
ag2385
ag2389
aVc:\u005cwindows\u005cfonts\u005ccorbell.ttf
p3458
ag2393
ag2397
ag2401
ag2405
ag2409
ag2413
ag2417
aVC:\u005cWINDOWS\u005cFonts\u005cesri_47.ttf
p3459
ag2421
ag2425
ag2429
ag2433
ag2437
aVc:\u005cwindows\u005cfonts\u005chimalaya.ttf
p3460
aVc:\u005cwindows\u005cfonts\u005ccalibrii.ttf
p3461
ag2441
aVC:\u005cWINDOWS\u005cFonts\u005cmonosb.ttf
p3462
aVc:\u005cwindows\u005cfonts\u005cswisscbi.ttf
p3463
ag2445
ag2449
ag2453
aVC:\u005cWINDOWS\u005cFonts\u005cswissl.ttf
p3464
ag2457
aVc:\u005cwindows\u005cfonts\u005cswissbi.ttf
p3465
ag2461
ag2465
ag2469
ag2473
ag2477
aVC:\u005cWINDOWS\u005cFonts\u005ccouri.ttf
p3466
ag2481
ag2485
aVC:\u005cWINDOWS\u005cFonts\u005ctrebucbd.ttf
p3467
ag2489
ag2493
aVC:\u005cWINDOWS\u005cFonts\u005ccour.ttf
p3468
ag2497
ag2501
ag2505
ag2509
aVC:\u005cWINDOWS\u005cFonts\u005ccourbd.ttf
p3469
aVc:\u005cwindows\u005cfonts\u005cconstani.ttf
p3470
ag2513
ag2517
ag2521
ag2525
ag2529
ag2533
aVC:\u005cWINDOWS\u005cFonts\u005cseguibli.ttf
p3471
aVc:\u005cwindows\u005cfonts\u005cmalgunbd.ttf
p3472
ag2537
ag2541
aVC:\u005cWINDOWS\u005cFonts\u005cverdanab.ttf
p3473
aVC:\u005cWINDOWS\u005cFonts\u005cframdit.ttf
p3474
ag2545
aVC:\u005cWINDOWS\u005cFonts\u005ccorbelb.ttf
p3475
aVc:\u005cwindows\u005cfonts\u005cntailu.ttf
p3476
ag2549
aVC:\u005cWINDOWS\u005cFonts\u005cesri_15.ttf
p3477
ag2553
aVc:\u005cwindows\u005cfonts\u005cmtproxy6.ttf
p3478
ag2557
aVc:\u005cwindows\u005cfonts\u005cromand__.ttf
p3479
ag2561
aVc:\u005cwindows\u005cfonts\u005cesri_832.ttf
p3480
ag2565
ag2569
aVC:\u005cWINDOWS\u005cFonts\u005cseguili.ttf
p3481
aVC:\u005cWINDOWS\u005cFonts\u005cpanroman.ttf
p3482
ag2573
ag2577
ag2581
aVc:\u005cwindows\u005cfonts\u005cromant__.ttf
p3483
aVc:\u005cwindows\u005cfonts\u005cgeorgiaz.ttf
p3484
aVc:\u005cwindows\u005cfonts\u005cgreekc__.ttf
p3485
aVC:\u005cWINDOWS\u005cFonts\u005cverdanaz.ttf
p3486
aVc:\u005cwindows\u005cfonts\u005cwebdings.ttf
p3487
aVC:\u005cWINDOWS\u005cFonts\u005cgadugi.ttf
p3488
aVC:\u005cWINDOWS\u005cFonts\u005ctahomabd.ttf
p3489
ag2585
ag2589
ag2593
ag2597
ag2601
aVC:\u005cWINDOWS\u005cFonts\u005cconsolai.ttf
p3490
aVC:\u005cWINDOWS\u005cFonts\u005ccambriab.ttf
p3491
ag2605
ag2609
ag2613
ag2617
ag2621
ag2625
ag2629
ag2633
aVC:\u005cWINDOWS\u005cFonts\u005csanssbo_.ttf
p3492
ag2637
ag2641
ag2645
aVc:\u005cwindows\u005cfonts\u005cbgothl.ttf
p3493
ag2649
aVc:\u005cwindows\u005cfonts\u005cmonbaiti.ttf
p3494
ag2653
aVC:\u005cWINDOWS\u005cFonts\u005cbgothm.ttf
p3495
ag2657
ag2661
aVc:\u005cwindows\u005cfonts\u005cseguihis.ttf
p3496
ag2665
ag2669
aVc:\u005cwindows\u005cfonts\u005ccorbel.ttf
p3497
ag2673
aVC:\u005cWINDOWS\u005cFonts\u005cesri_161.ttf
p3498
ag2677
ag2681
ag2685
ag2689
ag2693
aVc:\u005cwindows\u005cfonts\u005cetnci2.ttf
p3499
ag2697
ag2701
ag2705
ag2709
ag2713
ag2717
ag2721
aVc:\u005cwindows\u005cfonts\u005cesri_149.ttf
p3500
ag2725
aVC:\u005cWINDOWS\u005cFonts\u005ctaileb.ttf
p3501
ag2729
aVc:\u005cwindows\u005cfonts\u005cmmrtext.ttf
p3502
aVc:\u005cwindows\u005cfonts\u005cesri_730.ttf
p3503
aVc:\u005cwindows\u005cfonts\u005cswisseb.ttf
p3504
aVc:\u005cwindows\u005cfonts\u005csegoesc.ttf
p3505
aVc:\u005cwindows\u005cfonts\u005csegoeuisl.ttf
p3506
ag2733
ag2737
aVC:\u005cWINDOWS\u005cFonts\u005cesri_500.ttf
p3507
aVc:\u005cwindows\u005cfonts\u005citalic__.ttf
p3508
aVc:\u005cwindows\u005cfonts\u005ctechnic_.ttf
p3509
aVc:\u005cwindows\u005cfonts\u005cswisscl.ttf
p3510
aVc:\u005cwindows\u005cfonts\u005ccorbelz.ttf
p3511
ag2741
aVc:\u005cwindows\u005cfonts\u005cimpact.ttf
p3512
aVC:\u005cWINDOWS\u005cFonts\u005cesri_216.ttf
p3513
ag2745
aVC:\u005cWINDOWS\u005cFonts\u005cswisse.ttf
p3514
aVC:\u005cWINDOWS\u005cFonts\u005cdutcheb.ttf
p3515
ag2749
aVC:\u005cWINDOWS\u005cFonts\u005csegoeui.ttf
p3516
ag2753
ag2757
aVc:\u005cwindows\u005cfonts\u005ccomic.ttf
p3517
ag2761
aVc:\u005cwindows\u005cfonts\u005csegoeprb.ttf
p3518
ag2765
ag2769
aVC:\u005cWINDOWS\u005cFonts\u005ccomplex_.ttf
p3519
aVc:\u005cwindows\u005cfonts\u005cmmrtextb.ttf
p3520
ag2773
aVc:\u005cwindows\u005cfonts\u005cesri_160.ttf
p3521
ag2777
ag2781
aVc:\u005cwindows\u005cfonts\u005cumath.ttf
p3522
aVC:\u005cWINDOWS\u005cFonts\u005cisoct___.ttf
p3523
aVc:\u005cwindows\u005cfonts\u005cesri_34.ttf
p3524
ag2785
ag2789
aVc:\u005cwindows\u005cfonts\u005ccorbeli.ttf
p3525
ag2793
ag2797
ag2801
ag2805
ag2809
aVC:\u005cWINDOWS\u005cFonts\u005cesri_12.ttf
p3526
ag2813
ag2817
aVc:\u005cwindows\u005cfonts\u005cframd.ttf
p3527
aVC:\u005cWINDOWS\u005cFonts\u005carialbd.ttf
p3528
ag2821
ag2825
aVc:\u005cwindows\u005cfonts\u005csymusic_.ttf
p3529
aVC:\u005cWINDOWS\u005cFonts\u005ctechl___.ttf
p3530
aVc:\u005cwindows\u005cfonts\u005ccomicz.ttf
p3531
ag2829
ag2833
aVc:\u005cwindows\u005cfonts\u005cswissi.ttf
p3532
ag2837
aVC:\u005cWINDOWS\u005cFonts\u005csegoeuii.ttf
p3533
aVC:\u005cWINDOWS\u005cFonts\u005ctrebucit.ttf
p3534
ag2841
aVC:\u005cWINDOWS\u005cFonts\u005cswissk.ttf
p3535
ag2845
aVC:\u005cWINDOWS\u005cFonts\u005clucon.ttf
p3536
aVc:\u005cwindows\u005cfonts\u005cseguisli.ttf
p3537
aVc:\u005cwindows\u005cfonts\u005cesri_406.ttf
p3538
aVc:\u005cwindows\u005cfonts\u005cmalgun.ttf
p3539
ag2849
ag2853
ag2857
ag2861
ag2865
ag2869
ag2873
aVC:\u005cWINDOWS\u005cFonts\u005cscripts_.ttf
p3540
ag2877
ag2881
ag2885
aVc:\u005cwindows\u005cfonts\u005cswisscbo.ttf
p3541
ag2889
ag2893
ag2897
aVC:\u005cWINDOWS\u005cFonts\u005cswissko.ttf
p3542
ag2901
aVC:\u005cWINDOWS\u005cFonts\u005cswissci.ttf
p3543
ag2905
aVc:\u005cwindows\u005cfonts\u005cesri_29.ttf
p3544
ag2909
aVC:\u005cWINDOWS\u005cFonts\u005cmsyi.ttf
p3545
aVC:\u005cWINDOWS\u005cFonts\u005cesri_44.ttf
p3546
ag2913
ag2917
aVc:\u005cwindows\u005cfonts\u005cgothici_.ttf
p3547
aVc:\u005cwindows\u005cfonts\u005cgeorgiai.ttf
p3548
ag2921
aVC:\u005cWINDOWS\u005cFonts\u005cesri_225.ttf
p3549
ag2925
ag2929
aVC:\u005cWINDOWS\u005cFonts\u005ctahoma.ttf
p3550
aVc:\u005cwindows\u005cfonts\u005cpala.ttf
p3551
aVc:\u005cwindows\u005cfonts\u005cesri_153.ttf
p3552
aVC:\u005cWINDOWS\u005cFonts\u005csegoescb.ttf
p3553
aVC:\u005cWINDOWS\u005cFonts\u005cdutch.ttf
p3554
aVC:\u005cWINDOWS\u005cFonts\u005citalicc_.ttf
p3555
aVC:\u005cWINDOWS\u005cFonts\u005cmalgunsl.ttf
p3556
aVC:\u005cWINDOWS\u005cFonts\u005cesri_21.ttf
p3557
aVc:\u005cwindows\u005cfonts\u005ctimesi.ttf
p3558
aVc:\u005cwindows\u005cfonts\u005cswissek.ttf
p3559
aVC:\u005cWINDOWS\u005cFonts\u005cgeorgiab.ttf
p3560
ag2933
aVc:\u005cwindows\u005cfonts\u005cseguisym.ttf
p3561
ag2937
aVC:\u005cWINDOWS\u005cFonts\u005cbahnschrift.ttf
p3562
ag2941
aVc:\u005cwindows\u005cfonts\u005cesri_8.ttf
p3563
ag2945
aVc:\u005cwindows\u005cfonts\u005cesri_651.ttf
p3564
ag2949
ag2953
ag2957
ag2961
ag2965
aVc:\u005cwindows\u005cfonts\u005ccambriaz.ttf
p3565
aVc:\u005cwindows\u005cfonts\u005cesri_49.ttf
p3566
aVC:\u005cWINDOWS\u005cFonts\u005carialbi.ttf
p3567
aVc:\u005cwindows\u005cfonts\u005cesri_222.ttf
p3568
ag2969
ag2973
ag2977
aVc:\u005cwindows\u005cfonts\u005cesri_376.ttf
p3569
ag2981
aVC:\u005cWINDOWS\u005cFonts\u005cvg2main.ttf
p3570
ag2985
ag2989
aVc:\u005cwindows\u005cfonts\u005cmtproxy8.ttf
p3571
aVc:\u005cwindows\u005cfonts\u005cisocteur.ttf
p3572
aVC:\u005cWINDOWS\u005cFonts\u005csegoeuiz.ttf
p3573
ag2993
aVC:\u005cWINDOWS\u005cFonts\u005cesri_377.ttf
p3574
aVc:\u005cwindows\u005cfonts\u005cesri_223.ttf
p3575
aVc:\u005cwindows\u005cfonts\u005cesri_30s.ttf
p3576
ag2997
ag3001
aVC:\u005cWINDOWS\u005cFonts\u005csupef___.ttf
p3577
ag3005
ag3009
aVC:\u005cWINDOWS\u005cFonts\u005cesri_130.ttf
p3578
ag3013
aVC:\u005cWINDOWS\u005cFonts\u005cesri_220.ttf
p3579
aVc:\u005cwindows\u005cfonts\u005csegoeuib.ttf
p3580
ag3017
aVC:\u005cWINDOWS\u005cFonts\u005csanss___.ttf
p3581
ag3021
ag3025
ag3029
ag3033
aVc:\u005cwindows\u005cfonts\u005csegoeuil.ttf
p3582
ag3037
aVc:\u005cwindows\u005cfonts\u005cisocp3__.ttf
p3583
ag3041
ag3045
aVc:\u005cwindows\u005cfonts\u005cesri_221.ttf
p3584
ag3049
aVc:\u005cwindows\u005cfonts\u005cesri_26.ttf
p3585
aVc:\u005cwindows\u005cfonts\u005cesri_5.ttf
p3586
ag3053
aVc:\u005cwindows\u005cfonts\u005cesri_24.ttf
p3587
ag3057
aVc:\u005cwindows\u005cfonts\u005cswissck.ttf
p3588
ag3061
ag3065
aVC:\u005cWINDOWS\u005cFonts\u005ctimes.ttf
p3589
ag3069
aVC:\u005cWINDOWS\u005cFonts\u005cswissc.ttf
p3590
ag3073
ag3077
aVc:\u005cwindows\u005cfonts\u005cebrima.ttf
p3591
ag3081
ag3085
ag3089
aVc:\u005cwindows\u005cfonts\u005csansso__.ttf
p3592
aVC:\u005cWINDOWS\u005cFonts\u005ctrebuc.ttf
p3593
ag3093
ag3097
ag3101
ag3105
aVC:\u005cWINDOWS\u005cFonts\u005cesri_837.ttf
p3594
aVC:\u005cWINDOWS\u005cFonts\u005cconsolab.ttf
p3595
ag3109
ag3113
ag3117
ag3121
aVC:\u005cWINDOWS\u005cFonts\u005cesri_39.ttf
p3596
ag3125
ag3129
ag3133
ag3137
ag3141
ag3145
aVC:\u005cWINDOWS\u005cFonts\u005cesri_105.ttf
p3597
aVC:\u005cWINDOWS\u005cFonts\u005ccalibri.ttf
p3598
ag3149
aVc:\u005cwindows\u005cfonts\u005csimplex_.ttf
p3599
aVc:\u005cwindows\u005cfonts\u005cesri_33.ttf
p3600
aVC:\u005cWINDOWS\u005cFonts\u005cesri_132.ttf
p3601
ag3153
aVc:\u005cwindows\u005cfonts\u005cverdana.ttf
p3602
aVC:\u005cWINDOWS\u005cFonts\u005cesri_1.ttf
p3603
aVc:\u005cwindows\u005cfonts\u005cswisscki.ttf
p3604
aVc:\u005cwindows\u005cfonts\u005cisoct2__.ttf
p3605
ag3157
aVC:\u005cWINDOWS\u005cFonts\u005cesri_19.ttf
p3606
ag3161
aVC:\u005cWINDOWS\u005cFonts\u005cmonosi.ttf
p3607
ag3165
aVC:\u005cWINDOWS\u005cFonts\u005cesri_801.ttf
p3608
aVC:\u005cWINDOWS\u005cFonts\u005ccourbi.ttf
p3609
ag3169
ag3173
aVc:\u005cwindows\u005cfonts\u005ctimesbd.ttf
p3610
ag3177
ag3181
ag3185
ag3189
ag3193
ag3197
aVC:\u005cWINDOWS\u005cFonts\u005cisocpeui.ttf
p3611
aVC:\u005cWINDOWS\u005cFonts\u005cesri_3.ttf
p3612
ag3201
ag3205
aVC:\u005cWINDOWS\u005cFonts\u005cmtproxy2.ttf
p3613
aVC:\u005cWINDOWS\u005cFonts\u005cariali.ttf
p3614
aVc:\u005cwindows\u005cfonts\u005cesri_16.ttf
p3615
ag3209
aVC:\u005cWINDOWS\u005cFonts\u005ccalibriz.ttf
p3616
ag3213
aVc:\u005cwindows\u005cfonts\u005cisocteui.ttf
p3617
ag3217
aVC:\u005cWINDOWS\u005cFonts\u005cgadugib.ttf
p3618
aVc:\u005cwindows\u005cfonts\u005csymap___.ttf
p3619
ag3221
ag3225
aVc:\u005cwindows\u005cfonts\u005cntailub.ttf
p3620
ag3229
aVc:\u005cwindows\u005cfonts\u005cesri_375.ttf
p3621
aVC:\u005cWINDOWS\u005cFonts\u005carial.ttf
p3622
ag3233
aVc:\u005cwindows\u005cfonts\u005cmtproxy7.ttf
p3623
ag3237
ag3241
aVc:\u005cwindows\u005cfonts\u005cesri_14.ttf
p3624
ag3245
ag3249
ag3253
ag3257
aVc:\u005cwindows\u005cfonts\u005cmonosbi.ttf
p3625
aVc:\u005cwindows\u005cfonts\u005cesri_40.ttf
p3626
aVc:\u005cwindows\u005cfonts\u005ceurro___.ttf
p3627
ag3261
ag3265
aVc:\u005cwindows\u005cfonts\u005cmtproxy5.ttf
p3628
aVC:\u005cWINDOWS\u005cFonts\u005cesri_133.ttf
p3629
ag3269
ag3273
aVC:\u005cWINDOWS\u005cFonts\u005cmtproxy3.ttf
p3630
ag3277
aVc:\u005cwindows\u005cfonts\u005cswissli.ttf
p3631
ag3281
aVc:\u005cwindows\u005cfonts\u005cesri_652.ttf
p3632
aVc:\u005cwindows\u005cfonts\u005cholomdl2.ttf
p3633
aVC:\u005cWINDOWS\u005cFonts\u005cesri_4.ttf
p3634
ag3285
ag3289
ag3293
ag3297
aVc:\u005cwindows\u005cfonts\u005cmvboli.ttf
p3635
ag3301
aVC:\u005cWINDOWS\u005cFonts\u005cpalabi.ttf
p3636
ag3305
aVC:\u005cWINDOWS\u005cFonts\u005cswissb.ttf
p3637
ag3309
ag3313
ag3317
ag3321
ag3325
aVC:\u005cWINDOWS\u005cFonts\u005cisocpeur.ttf
p3638
ag3329
ag3333
aVc:\u005cwindows\u005cfonts\u005cphagspab.ttf
p3639
aVc:\u005cwindows\u005cfonts\u005csegmdl2.ttf
p3640
ag3337
ag3341
ag3345
ag3349
aVc:\u005cwindows\u005cfonts\u005ccompi.ttf
p3641
aVc:\u005cwindows\u005cfonts\u005cesri_144.ttf
p3642
ag3353
aVc:\u005cwindows\u005cfonts\u005cesri_25.ttf
p3643
aVc:\u005cwindows\u005cfonts\u005cesri_224.ttf
p3644
aVC:\u005cWINDOWS\u005cFonts\u005cwingding.ttf
p3645
asS'_FontManager__default_weight'
p3646
Vnormal
p3647
sS'_version'
p3648
I101
sS'default_size'
p3649
NsS'defaultFont'
p3650
(dp3651
g3356
VC:\u005cPython27\u005cArcGIS10.8\u005clib\u005csite-packages\u005cmatplotlib\u005cmpl-data\u005cfonts\u005cafm\u005cpplr8a.afm
p3652
sg3358
g111
ssS'afmfiles'
p3653
(lp3654
g3652
aVC:\u005cPython27\u005cArcGIS10.8\u005clib\u005csite-packages\u005cmatplotlib\u005cmpl-data\u005cfonts\u005cafm\u005cphvbo8an.afm
p3655
aVC:\u005cPython27\u005cArcGIS10.8\u005clib\u005csite-packages\u005cmatplotlib\u005cmpl-data\u005cfonts\u005cafm\u005cpncbi8a.afm
p3656
aVC:\u005cPython27\u005cArcGIS10.8\u005clib\u005csite-packages\u005cmatplotlib\u005cmpl-data\u005cfonts\u005cafm\u005ccmr10.afm
p3657
aVC:\u005cPython27\u005cArcGIS10.8\u005clib\u005csite-packages\u005cmatplotlib\u005cmpl-data\u005cfonts\u005cpdfcorefonts\u005cHelvetica.afm
p3658
aVC:\u005cPython27\u005cArcGIS10.8\u005clib\u005csite-packages\u005cmatplotlib\u005cmpl-data\u005cfonts\u005cafm\u005cphvbo8a.afm
p3659
aVC:\u005cPython27\u005cArcGIS10.8\u005clib\u005csite-packages\u005cmatplotlib\u005cmpl-data\u005cfonts\u005cafm\u005cpbkl8a.afm
p3660
aVC:\u005cPython27\u005cArcGIS10.8\u005clib\u005csite-packages\u005cmatplotlib\u005cmpl-data\u005cfonts\u005cafm\u005cpagdo8a.afm
p3661
aVC:\u005cPython27\u005cArcGIS10.8\u005clib\u005csite-packages\u005cmatplotlib\u005cmpl-data\u005cfonts\u005cafm\u005ccmmi10.afm
p3662
aVC:\u005cPython27\u005cArcGIS10.8\u005clib\u005csite-packages\u005cmatplotlib\u005cmpl-data\u005cfonts\u005cafm\u005cptmri8a.afm
p3663
aVC:\u005cPython27\u005cArcGIS10.8\u005clib\u005csite-packages\u005cmatplotlib\u005cmpl-data\u005cfonts\u005cpdfcorefonts\u005cTimes-Bold.afm
p3664
aVC:\u005cPython27\u005cArcGIS10.8\u005clib\u005csite-packages\u005cmatplotlib\u005cmpl-data\u005cfonts\u005cafm\u005cpbkdi8a.afm
p3665
aVC:\u005cPython27\u005cArcGIS10.8\u005clib\u005csite-packages\u005cmatplotlib\u005cmpl-data\u005cfonts\u005cafm\u005cphvlo8a.afm
p3666
aVC:\u005cPython27\u005cArcGIS10.8\u005clib\u005csite-packages\u005cmatplotlib\u005cmpl-data\u005cfonts\u005cpdfcorefonts\u005cTimes-Italic.afm
p3667
aVC:\u005cPython27\u005cArcGIS10.8\u005clib\u005csite-packages\u005cmatplotlib\u005cmpl-data\u005cfonts\u005cafm\u005cpsyr.afm
p3668
aVC:\u005cPython27\u005cArcGIS10.8\u005clib\u005csite-packages\u005cmatplotlib\u005cmpl-data\u005cfonts\u005cafm\u005cpplri8a.afm
p3669
aVC:\u005cPython27\u005cArcGIS10.8\u005clib\u005csite-packages\u005cmatplotlib\u005cmpl-data\u005cfonts\u005cafm\u005cpncb8a.afm
p3670
aVC:\u005cPython27\u005cArcGIS10.8\u005clib\u005csite-packages\u005cmatplotlib\u005cmpl-data\u005cfonts\u005cpdfcorefonts\u005cHelvetica-Oblique.afm
p3671
aVC:\u005cPython27\u005cArcGIS10.8\u005clib\u005csite-packages\u005cmatplotlib\u005cmpl-data\u005cfonts\u005cafm\u005cputri8a.afm
p3672
aVC:\u005cPython27\u005cArcGIS10.8\u005clib\u005csite-packages\u005cmatplotlib\u005cmpl-data\u005cfonts\u005cpdfcorefonts\u005cCourier-Oblique.afm
p3673
aVC:\u005cPython27\u005cArcGIS10.8\u005clib\u005csite-packages\u005cmatplotlib\u005cmpl-data\u005cfonts\u005cpdfcorefonts\u005cZapfDingbats.afm
p3674
aVC:\u005cPython27\u005cArcGIS10.8\u005clib\u005csite-packages\u005cmatplotlib\u005cmpl-data\u005cfonts\u005cpdfcorefonts\u005cHelvetica-Bold.afm
p3675
aVC:\u005cPython27\u005cArcGIS10.8\u005clib\u005csite-packages\u005cmatplotlib\u005cmpl-data\u005cfonts\u005cafm\u005cpcrr8a.afm
p3676
aVC:\u005cPython27\u005cArcGIS10.8\u005clib\u005csite-packages\u005cmatplotlib\u005cmpl-data\u005cfonts\u005cafm\u005cpzcmi8a.afm
p3677
aVC:\u005cPython27\u005cArcGIS10.8\u005clib\u005csite-packages\u005cmatplotlib\u005cmpl-data\u005cfonts\u005cafm\u005cpcrro8a.afm
p3678
aVC:\u005cPython27\u005cArcGIS10.8\u005clib\u005csite-packages\u005cmatplotlib\u005cmpl-data\u005cfonts\u005cafm\u005ccmsy10.afm
p3679
aVC:\u005cPython27\u005cArcGIS10.8\u005clib\u005csite-packages\u005cmatplotlib\u005cmpl-data\u005cfonts\u005cafm\u005cphvro8a.afm
p3680
aVC:\u005cPython27\u005cArcGIS10.8\u005clib\u005csite-packages\u005cmatplotlib\u005cmpl-data\u005cfonts\u005cafm\u005cputb8a.afm
p3681
aVC:\u005cPython27\u005cArcGIS10.8\u005clib\u005csite-packages\u005cmatplotlib\u005cmpl-data\u005cfonts\u005cafm\u005cphvl8a.afm
p3682
aVC:\u005cPython27\u005cArcGIS10.8\u005clib\u005csite-packages\u005cmatplotlib\u005cmpl-data\u005cfonts\u005cafm\u005cpagko8a.afm
p3683
aVC:\u005cPython27\u005cArcGIS10.8\u005clib\u005csite-packages\u005cmatplotlib\u005cmpl-data\u005cfonts\u005cpdfcorefonts\u005cHelvetica-BoldOblique.afm
p3684
aVC:\u005cPython27\u005cArcGIS10.8\u005clib\u005csite-packages\u005cmatplotlib\u005cmpl-data\u005cfonts\u005cafm\u005cphvr8a.afm
p3685
aVC:\u005cPython27\u005cArcGIS10.8\u005clib\u005csite-packages\u005cmatplotlib\u005cmpl-data\u005cfonts\u005cafm\u005cphvb8an.afm
p3686
aVC:\u005cPython27\u005cArcGIS10.8\u005clib\u005csite-packages\u005cmatplotlib\u005cmpl-data\u005cfonts\u005cafm\u005cputr8a.afm
p3687
aVC:\u005cPython27\u005cArcGIS10.8\u005clib\u005csite-packages\u005cmatplotlib\u005cmpl-data\u005cfonts\u005cafm\u005cpplb8a.afm
p3688
aVC:\u005cPython27\u005cArcGIS10.8\u005clib\u005csite-packages\u005cmatplotlib\u005cmpl-data\u005cfonts\u005cafm\u005cphvr8an.afm
p3689
aVC:\u005cPython27\u005cArcGIS10.8\u005clib\u005csite-packages\u005cmatplotlib\u005cmpl-data\u005cfonts\u005cpdfcorefonts\u005cTimes-BoldItalic.afm
p3690
aVC:\u005cPython27\u005cArcGIS10.8\u005clib\u005csite-packages\u005cmatplotlib\u005cmpl-data\u005cfonts\u005cafm\u005cpzdr.afm
p3691
aVC:\u005cPython27\u005cArcGIS10.8\u005clib\u005csite-packages\u005cmatplotlib\u005cmpl-data\u005cfonts\u005cafm\u005cpbkd8a.afm
p3692
aVC:\u005cPython27\u005cArcGIS10.8\u005clib\u005csite-packages\u005cmatplotlib\u005cmpl-data\u005cfonts\u005cafm\u005cpplbi8a.afm
p3693
aVC:\u005cPython27\u005cArcGIS10.8\u005clib\u005csite-packages\u005cmatplotlib\u005cmpl-data\u005cfonts\u005cafm\u005cpncri8a.afm
p3694
aVC:\u005cPython27\u005cArcGIS10.8\u005clib\u005csite-packages\u005cmatplotlib\u005cmpl-data\u005cfonts\u005cafm\u005cpcrbo8a.afm
p3695
aVC:\u005cPython27\u005cArcGIS10.8\u005clib\u005csite-packages\u005cmatplotlib\u005cmpl-data\u005cfonts\u005cpdfcorefonts\u005cCourier.afm
p3696
aVC:\u005cPython27\u005cArcGIS10.8\u005clib\u005csite-packages\u005cmatplotlib\u005cmpl-data\u005cfonts\u005cafm\u005cputbi8a.afm
p3697
aVC:\u005cPython27\u005cArcGIS10.8\u005clib\u005csite-packages\u005cmatplotlib\u005cmpl-data\u005cfonts\u005cafm\u005ccmtt10.afm
p3698
aVC:\u005cPython27\u005cArcGIS10.8\u005clib\u005csite-packages\u005cmatplotlib\u005cmpl-data\u005cfonts\u005cafm\u005cptmr8a.afm
p3699
aVC:\u005cPython27\u005cArcGIS10.8\u005clib\u005csite-packages\u005cmatplotlib\u005cmpl-data\u005cfonts\u005cafm\u005cpcrb8a.afm
p3700
aVC:\u005cPython27\u005cArcGIS10.8\u005clib\u005csite-packages\u005cmatplotlib\u005cmpl-data\u005cfonts\u005cafm\u005cphvro8an.afm
p3701
aVC:\u005cPython27\u005cArcGIS10.8\u005clib\u005csite-packages\u005cmatplotlib\u005cmpl-data\u005cfonts\u005cafm\u005cpagd8a.afm
p3702
aVC:\u005cPython27\u005cArcGIS10.8\u005clib\u005csite-packages\u005cmatplotlib\u005cmpl-data\u005cfonts\u005cafm\u005cptmb8a.afm
p3703
aVC:\u005cPython27\u005cArcGIS10.8\u005clib\u005csite-packages\u005cmatplotlib\u005cmpl-data\u005cfonts\u005cpdfcorefonts\u005cCourier-Bold.afm
p3704
aVC:\u005cPython27\u005cArcGIS10.8\u005clib\u005csite-packages\u005cmatplotlib\u005cmpl-data\u005cfonts\u005cpdfcorefonts\u005cSymbol.afm
p3705
aVC:\u005cPython27\u005cArcGIS10.8\u005clib\u005csite-packages\u005cmatplotlib\u005cmpl-data\u005cfonts\u005cafm\u005ccmex10.afm
p3706
aVC:\u005cPython27\u005cArcGIS10.8\u005clib\u005csite-packages\u005cmatplotlib\u005cmpl-data\u005cfonts\u005cpdfcorefonts\u005cCourier-BoldOblique.afm
p3707
aVC:\u005cPython27\u005cArcGIS10.8\u005clib\u005csite-packages\u005cmatplotlib\u005cmpl-data\u005cfonts\u005cpdfcorefonts\u005cTimes-Roman.afm
p3708
aVC:\u005cPython27\u005cArcGIS10.8\u005clib\u005csite-packages\u005cmatplotlib\u005cmpl-data\u005cfonts\u005cafm\u005cphvb8a.afm
p3709
aVC:\u005cPython27\u005cArcGIS10.8\u005clib\u005csite-packages\u005cmatplotlib\u005cmpl-data\u005cfonts\u005cafm\u005cptmbi8a.afm
p3710
aVC:\u005cPython27\u005cArcGIS10.8\u005clib\u005csite-packages\u005cmatplotlib\u005cmpl-data\u005cfonts\u005cafm\u005cpbkli8a.afm
p3711
aVC:\u005cPython27\u005cArcGIS10.8\u005clib\u005csite-packages\u005cmatplotlib\u005cmpl-data\u005cfonts\u005cafm\u005cpncr8a.afm
p3712
aVC:\u005cPython27\u005cArcGIS10.8\u005clib\u005csite-packages\u005cmatplotlib\u005cmpl-data\u005cfonts\u005cafm\u005cpagk8a.afm
p3713
asS'afmlist'
p3714
(lp3715
g1
(g8
g3
NtRp3716
(dp3717
g11
Vnormal
p3718
sg13
S'Palatino'
p3719
sg15
I500
sg16
g3718
sg17
g3718
sg18
g3652
sg20
Vscalable
p3720
sbag1
(g8
g3
NtRp3721
(dp3722
g11
Vitalic
p3723
sg13
S'Helvetica'
p3724
sg15
I700
sg16
Vcondensed
p3725
sg17
g3718
sg18
g3655
sg20
g3720
sbag1
(g8
g3
NtRp3726
(dp3727
g11
g3723
sg13
S'New Century Schoolbook'
p3728
sg15
I700
sg16
g3718
sg17
g3718
sg18
g3656
sg20
g3720
sbag1
(g8
g3
NtRp3729
(dp3730
g11
g3718
sg13
S'Computer Modern'
p3731
sg15
I500
sg16
g3718
sg17
g3718
sg18
g3657
sg20
g3720
sbag1
(g8
g3
NtRp3732
(dp3733
g11
g3718
sg13
S'Helvetica'
p3734
sg15
I500
sg16
g3718
sg17
g3718
sg18
g3658
sg20
g3720
sbag1
(g8
g3
NtRp3735
(dp3736
g11
g3723
sg13
S'Helvetica'
p3737
sg15
I700
sg16
g3718
sg17
g3718
sg18
g3659
sg20
g3720
sbag1
(g8
g3
NtRp3738
(dp3739
g11
g3718
sg13
S'ITC Bookman'
p3740
sg15
I200
sg16
g3718
sg17
g3718
sg18
g3660
sg20
g3720
sbag1
(g8
g3
NtRp3741
(dp3742
g11
g3723
sg13
S'ITC Avant Garde Gothic'
p3743
sg15
I600
sg16
g3718
sg17
g3718
sg18
g3661
sg20
g3720
sbag1
(g8
g3
NtRp3744
(dp3745
g11
g3723
sg13
S'Computer Modern'
p3746
sg15
I500
sg16
g3718
sg17
g3718
sg18
g3662
sg20
g3720
sbag1
(g8
g3
NtRp3747
(dp3748
g11
g3723
sg13
S'Times'
p3749
sg15
I500
sg16
g3718
sg17
g3718
sg18
g3663
sg20
g3720
sbag1
(g8
g3
NtRp3750
(dp3751
g11
g3718
sg13
S'Times'
p3752
sg15
I700
sg16
g3718
sg17
g3718
sg18
g3664
sg20
g3720
sbag1
(g8
g3
NtRp3753
(dp3754
g11
g3723
sg13
S'ITC Bookman'
p3755
sg15
I600
sg16
g3718
sg17
g3718
sg18
g3665
sg20
g3720
sbag1
(g8
g3
NtRp3756
(dp3757
g11
g3723
sg13
S'Helvetica'
p3758
sg15
I200
sg16
g3718
sg17
g3718
sg18
g3666
sg20
g3720
sbag1
(g8
g3
NtRp3759
(dp3760
g11
g3723
sg13
S'Times'
p3761
sg15
I500
sg16
g3718
sg17
g3718
sg18
g3667
sg20
g3720
sbag1
(g8
g3
NtRp3762
(dp3763
g11
g3718
sg13
S'Symbol'
p3764
sg15
I500
sg16
g3718
sg17
g3718
sg18
g3668
sg20
g3720
sbag1
(g8
g3
NtRp3765
(dp3766
g11
g3723
sg13
S'Palatino'
p3767
sg15
I500
sg16
g3718
sg17
g3718
sg18
g3669
sg20
g3720
sbag1
(g8
g3
NtRp3768
(dp3769
g11
g3718
sg13
S'New Century Schoolbook'
p3770
sg15
I700
sg16
g3718
sg17
g3718
sg18
g3670
sg20
g3720
sbag1
(g8
g3
NtRp3771
(dp3772
g11
g3723
sg13
S'Helvetica'
p3773
sg15
I500
sg16
g3718
sg17
g3718
sg18
g3671
sg20
g3720
sbag1
(g8
g3
NtRp3774
(dp3775
g11
g3723
sg13
S'Utopia'
p3776
sg15
I400
sg16
g3718
sg17
g3718
sg18
g3672
sg20
g3720
sbag1
(g8
g3
NtRp3777
(dp3778
g11
g3723
sg13
S'Courier'
p3779
sg15
I500
sg16
g3718
sg17
g3718
sg18
g3673
sg20
g3720
sbag1
(g8
g3
NtRp3780
(dp3781
g11
g3718
sg13
S'ZapfDingbats'
p3782
sg15
I500
sg16
g3718
sg17
g3718
sg18
g3674
sg20
g3720
sbag1
(g8
g3
NtRp3783
(dp3784
g11
g3718
sg13
S'Helvetica'
p3785
sg15
I700
sg16
g3718
sg17
g3718
sg18
g3675
sg20
g3720
sbag1
(g8
g3
NtRp3786
(dp3787
g11
g3718
sg13
S'Courier'
p3788
sg15
I500
sg16
g3718
sg17
g3718
sg18
g3676
sg20
g3720
sbag1
(g8
g3
NtRp3789
(dp3790
g11
g3723
sg13
S'ITC Zapf Chancery'
p3791
sg15
I500
sg16
g3718
sg17
g3718
sg18
g3677
sg20
g3720
sbag1
(g8
g3
NtRp3792
(dp3793
g11
g3723
sg13
S'Courier'
p3794
sg15
I500
sg16
g3718
sg17
g3718
sg18
g3678
sg20
g3720
sbag1
(g8
g3
NtRp3795
(dp3796
g11
g3723
sg13
S'Computer Modern'
p3797
sg15
I500
sg16
g3718
sg17
g3718
sg18
g3679
sg20
g3720
sbag1
(g8
g3
NtRp3798
(dp3799
g11
g3723
sg13
S'Helvetica'
p3800
sg15
I500
sg16
g3718
sg17
g3718
sg18
g3680
sg20
g3720
sbag1
(g8
g3
NtRp3801
(dp3802
g11
g3718
sg13
S'Utopia'
p3803
sg15
I700
sg16
g3718
sg17
g3718
sg18
g3681
sg20
g3720
sbag1
(g8
g3
NtRp3804
(dp3805
g11
g3718
sg13
S'Helvetica'
p3806
sg15
I200
sg16
g3718
sg17
g3718
sg18
g3682
sg20
g3720
sbag1
(g8
g3
NtRp3807
(dp3808
g11
g3723
sg13
S'ITC Avant Garde Gothic'
p3809
sg15
I400
sg16
g3718
sg17
g3718
sg18
g3683
sg20
g3720
sbag1
(g8
g3
NtRp3810
(dp3811
g11
g3723
sg13
S'Helvetica'
p3812
sg15
I700
sg16
g3718
sg17
g3718
sg18
g3684
sg20
g3720
sbag1
(g8
g3
NtRp3813
(dp3814
g11
g3718
sg13
S'Helvetica'
p3815
sg15
I500
sg16
g3718
sg17
g3718
sg18
g3685
sg20
g3720
sbag1
(g8
g3
NtRp3816
(dp3817
g11
g3718
sg13
S'Helvetica'
p3818
sg15
I700
sg16
g3725
sg17
g3718
sg18
g3686
sg20
g3720
sbag1
(g8
g3
NtRp3819
(dp3820
g11
g3718
sg13
S'Utopia'
p3821
sg15
I400
sg16
g3718
sg17
g3718
sg18
g3687
sg20
g3720
sbag1
(g8
g3
NtRp3822
(dp3823
g11
g3718
sg13
S'Palatino'
p3824
sg15
I700
sg16
g3718
sg17
g3718
sg18
g3688
sg20
g3720
sbag1
(g8
g3
NtRp3825
(dp3826
g11
g3718
sg13
S'Helvetica'
p3827
sg15
I500
sg16
g3725
sg17
g3718
sg18
g3689
sg20
g3720
sbag1
(g8
g3
NtRp3828
(dp3829
g11
g3723
sg13
S'Times'
p3830
sg15
I700
sg16
g3718
sg17
g3718
sg18
g3690
sg20
g3720
sbag1
(g8
g3
NtRp3831
(dp3832
g11
g3718
sg13
S'ITC Zapf Dingbats'
p3833
sg15
I500
sg16
g3718
sg17
g3718
sg18
g3691
sg20
g3720
sbag1
(g8
g3
NtRp3834
(dp3835
g11
g3718
sg13
S'ITC Bookman'
p3836
sg15
I600
sg16
g3718
sg17
g3718
sg18
g3692
sg20
g3720
sbag1
(g8
g3
NtRp3837
(dp3838
g11
g3723
sg13
S'Palatino'
p3839
sg15
I700
sg16
g3718
sg17
g3718
sg18
g3693
sg20
g3720
sbag1
(g8
g3
NtRp3840
(dp3841
g11
g3723
sg13
S'New Century Schoolbook'
p3842
sg15
I500
sg16
g3718
sg17
g3718
sg18
g3694
sg20
g3720
sbag1
(g8
g3
NtRp3843
(dp3844
g11
g3723
sg13
S'Courier'
p3845
sg15
I700
sg16
g3718
sg17
g3718
sg18
g3695
sg20
g3720
sbag1
(g8
g3
NtRp3846
(dp3847
g11
g3718
sg13
S'Courier'
p3848
sg15
I500
sg16
g3718
sg17
g3718
sg18
g3696
sg20
g3720
sbag1
(g8
g3
NtRp3849
(dp3850
g11
g3723
sg13
S'Utopia'
p3851
sg15
I700
sg16
g3718
sg17
g3718
sg18
g3697
sg20
g3720
sbag1
(g8
g3
NtRp3852
(dp3853
g11
g3718
sg13
S'Computer Modern'
p3854
sg15
I500
sg16
g3718
sg17
g3718
sg18
g3698
sg20
g3720
sbag1
(g8
g3
NtRp3855
(dp3856
g11
g3718
sg13
S'Times'
p3857
sg15
I500
sg16
g3718
sg17
g3718
sg18
g3699
sg20
g3720
sbag1
(g8
g3
NtRp3858
(dp3859
g11
g3718
sg13
S'Courier'
p3860
sg15
I700
sg16
g3718
sg17
g3718
sg18
g3700
sg20
g3720
sbag1
(g8
g3
NtRp3861
(dp3862
g11
g3723
sg13
S'Helvetica'
p3863
sg15
I500
sg16
g3725
sg17
g3718
sg18
g3701
sg20
g3720
sbag1
(g8
g3
NtRp3864
(dp3865
g11
g3718
sg13
S'ITC Avant Garde Gothic'
p3866
sg15
I600
sg16
g3718
sg17
g3718
sg18
g3702
sg20
g3720
sbag1
(g8
g3
NtRp3867
(dp3868
g11
g3718
sg13
S'Times'
p3869
sg15
I700
sg16
g3718
sg17
g3718
sg18
g3703
sg20
g3720
sbag1
(g8
g3
NtRp3870
(dp3871
g11
g3718
sg13
S'Courier'
p3872
sg15
I700
sg16
g3718
sg17
g3718
sg18
g3704
sg20
g3720
sbag1
(g8
g3
NtRp3873
(dp3874
g11
g3718
sg13
S'Symbol'
p3875
sg15
I500
sg16
g3718
sg17
g3718
sg18
g3705
sg20
g3720
sbag1
(g8
g3
NtRp3876
(dp3877
g11
g3718
sg13
S'Computer Modern'
p3878
sg15
I500
sg16
g3718
sg17
g3718
sg18
g3706
sg20
g3720
sbag1
(g8
g3
NtRp3879
(dp3880
g11
g3723
sg13
S'Courier'
p3881
sg15
I700
sg16
g3718
sg17
g3718
sg18
g3707
sg20
g3720
sbag1
(g8
g3
NtRp3882
(dp3883
g11
g3718
sg13
S'Times'
p3884
sg15
I500
sg16
g3718
sg17
g3718
sg18
g3708
sg20
g3720
sbag1
(g8
g3
NtRp3885
(dp3886
g11
g3718
sg13
S'Helvetica'
p3887
sg15
I700
sg16
g3718
sg17
g3718
sg18
g3709
sg20
g3720
sbag1
(g8
g3
NtRp3888
(dp3889
g11
g3723
sg13
S'Times'
p3890
sg15
I700
sg16
g3718
sg17
g3718
sg18
g3710
sg20
g3720
sbag1
(g8
g3
NtRp3891
(dp3892
g11
g3723
sg13
S'ITC Bookman'
p3893
sg15
I200
sg16
g3718
sg17
g3718
sg18
g3711
sg20
g3720
sbag1
(g8
g3
NtRp3894
(dp3895
g11
g3718
sg13
S'New Century Schoolbook'
p3896
sg15
I500
sg16
g3718
sg17
g3718
sg18
g3712
sg20
g3720
sbag1
(g8
g3
NtRp3897
(dp3898
g11
g3718
sg13
S'ITC Avant Garde Gothic'
p3899
sg15
I400
sg16
g3718
sg17
g3718
sg18
g3713
sg20
g3720
sbasb.